ccollections
defaultdict
p0
(c__builtin__
float
p1
tp2
Rp3
((I240
I-180
I1
tp4
I0
tp5
F1.0
s((I400
I0
I-3
tp6
I0
tp7
F4.0
s((I400
I0
I-4
tp8
I1
tp9
F0.0
s((I320
I-60
I9
tp10
I1
tp11
F2.0
s((I200
I-60
I-2
tp12
I1
tp13
F0.0
s((I320
I-120
I9
tp14
I1
tp15
F0.0
s((I280
I-30
I-7
tp16
I1
tp17
F0.0
s((I360
I-60
I5
tp18
I0
tp19
F10.0
s((I320
I-30
I7
tp20
I1
tp21
F0.0
s((I320
I-180
I10
tp22
I1
tp23
F0.0
s((I280
I-90
I-2
tp24
I1
tp25
F0.0
s((I360
I-90
I5
tp26
I0
tp27
F9.0
s((I400
I-90
I-7
tp28
I1
tp29
F0.0
s((I160
I-90
I5
tp30
I1
tp31
F0.0
s((I160
I-270
I10
tp32
I1
tp33
F0.0
s((I360
I0
I4
tp34
I1
tp35
F0.0
s((I280
I-180
I1
tp36
I1
tp37
F0.0
s((I320
I30
I3
tp38
I1
tp39
F0.0
s((I240
I-180
I2
tp40
I1
tp41
F0.0
s((I240
I-270
I10
tp42
I1
tp43
F0.0
s((I160
I-60
I3
tp44
I1
tp45
F0.0
s((I320
I60
I-3
tp46
I1
tp47
F0.0
s((I320
I-150
I9
tp48
I0
tp49
F4.0
s((I240
I-60
I10
tp50
I1
tp51
F0.0
s((I360
I-120
I5
tp52
I1
tp53
F0.0
s((I320
I-60
I10
tp54
I0
tp55
F5.0
s((I320
I90
I2
tp56
I0
tp57
F1.0
s((I360
I-120
I4
tp58
I0
tp59
F7.0
s((I320
I-120
I10
tp60
I0
tp61
F2.0
s((I280
I30
I10
tp62
I0
tp63
F2.0
s((I400
I0
I-9
tp64
I1
tp65
F0.0
s((I280
I-120
I5
tp66
I1
tp67
F0.0
s((I360
I30
I0
tp68
I1
tp69
F0.0
s((I320
I30
I4
tp70
I0
tp71
F1.0
s((I400
I-90
I-2
tp72
I0
tp73
F8.0
s((I360
I30
I-9
tp74
I1
tp75
F0.0
s((I360
I-30
I2
tp76
I0
tp77
F9.0
s((I360
I-30
I-8
tp78
I0
tp79
F1.0
s(g76
I1
tp80
F0.0
s((I200
I-90
I0
tp81
I0
tp82
F2.0
s((I200
I-60
I-1
tp83
I1
tp84
F0.0
s((I400
I30
I-5
tp85
I0
tp86
F3.0
s((I320
I90
I-4
tp87
I1
tp88
F0.0
s((I400
I-30
I-5
tp89
I0
tp90
F11.0
s((I320
I-90
I-7
tp91
I0
tp92
F1.0
s((I400
I-30
I-6
tp93
I1
tp94
F0.0
s((I400
I0
I-5
tp95
I1
tp96
F0.0
s((I280
I-120
I6
tp97
I0
tp98
F1.0
s((I280
I30
I5
tp99
I1
tp100
F0.0
s((I400
I-120
I-6
tp101
I0
tp102
F2.0
s((I360
I-60
I-8
tp103
I0
tp104
F1.0
s((I280
I60
I7
tp105
I0
tp106
F1.0
s((I160
I-60
I0
tp107
I1
tp108
F0.0
s((I320
I60
I-2
tp109
I0
tp110
F1.0
s((I360
I-90
I-7
tp111
I1
tp112
F0.0
s((I400
I-30
I-9
tp113
I0
tp114
F11.0
s((I280
I-30
I3
tp115
I1
tp116
F0.0
s((I400
I-60
I-4
tp117
I1
tp118
F0.0
s((I240
I-180
I0
tp119
I0
tp120
F1.0
s((I280
I-180
I10
tp121
I1
tp122
F0.0
s((I320
I60
I-5
tp123
I1
tp124
F0.0
s((I320
I-120
I-7
tp125
I0
tp126
F2.0
s((I280
I-180
I-4
tp127
I0
tp128
F2.0
s((I360
I60
I-9
tp129
I0
tp130
F1.0
s((I280
I-120
I10
tp131
I0
tp132
F1.0
s((I320
I-30
I-1
tp133
I0
tp134
F1.0
s((I200
I-120
I-8
tp135
I1
tp136
F0.0
s((I360
I-90
I3
tp137
I0
tp138
F4.0
s((I240
I-30
I3
tp139
I1
tp140
F0.0
s((I320
I-210
I-9
tp141
I0
tp142
F2.0
s((I280
I-90
I-1
tp143
I1
tp144
F0.0
s((I200
I-120
I-5
tp145
I0
tp146
F1.0
s((I240
I-210
I10
tp147
I0
tp148
F1.0
s((I360
I-30
I3
tp149
I0
tp150
F12.0
s((I360
I30
I-1
tp151
I1
tp152
F0.0
s((I360
I0
I5
tp153
I1
tp154
F0.0
s((I200
I-240
I10
tp155
I1
tp156
F0.0
s((I280
I-180
I-3
tp157
I0
tp158
F2.0
s((I360
I-90
I-1
tp159
I0
tp160
F8.0
s((I400
I-60
I-6
tp161
I0
tp162
F14.0
s((I400
I0
I-2
tp163
I0
tp164
F8.0
s((I280
I-30
I-4
tp165
I0
tp166
F1.0
s((I320
I60
I1
tp167
I1
tp168
F0.0
s((I400
I-30
I-3
tp169
I1
tp170
F0.0
s((I240
I-30
I6
tp171
I1
tp172
F0.0
s((I320
I60
I0
tp173
I0
tp174
F1.0
s((I360
I-30
I-7
tp175
I1
tp176
F0.0
s((I360
I-60
I6
tp177
I0
tp178
F9.0
s((I240
I-120
I7
tp179
I0
tp180
F1.0
s((I280
I-90
I-4
tp181
I0
tp182
F2.0
s((I280
I-60
I9
tp183
I0
tp184
F6.0
s((I280
I-60
I8
tp185
I1
tp186
F0.0
s((I320
I-210
I10
tp187
I0
tp188
F1.0
s((I280
I-150
I9
tp189
I0
tp190
F3.0
s((I320
I90
I-1
tp191
I1
tp192
F0.0
s((I280
I-90
I0
tp193
I1
tp194
F0.0
s((I360
I0
I6
tp195
I0
tp196
F5.0
s((I360
I-60
I-6
tp197
I1
tp198
F0.0
s((I240
I-120
I-8
tp199
I1
tp200
F0.0
s((I280
I-30
I0
tp201
I1
tp202
F0.0
s(g48
I1
tp203
F3.0
s((I320
I-60
I-4
tp204
I1
tp205
F0.0
s((I320
I0
I5
tp206
I0
tp207
F1.0
s((I320
I0
I8
tp208
I0
tp209
F1.0
s((I280
I-180
I-6
tp210
I0
tp211
F2.0
s((I400
I-120
I-3
tp212
I0
tp213
F1.0
s((I400
I-30
I-4
tp214
I1
tp215
F0.0
s((I240
I-120
I8
tp216
I1
tp217
F0.0
s((I320
I30
I-7
tp218
I0
tp219
F1.0
s((I160
I-240
I10
tp220
I1
tp221
F0.0
s((I240
I-180
I-9
tp222
I1
tp223
F0.0
s((I200
I-90
I10
tp224
I1
tp225
F0.0
s((I360
I0
I-6
tp226
I0
tp227
F1.0
s((I160
I-60
I1
tp228
I1
tp229
F0.0
s((I400
I30
I-2
tp230
I0
tp231
F5.0
s((I360
I-30
I5
tp232
I1
tp233
F0.0
s((I320
I-30
I-3
tp234
I0
tp235
F2.0
s((I320
I-30
I6
tp236
I0
tp237
F1.0
s((I320
I90
I3
tp238
I1
tp239
F0.0
s((I360
I-120
I7
tp240
I0
tp241
F5.0
s((I400
I-30
I-8
tp242
I0
tp243
F11.0
s((I360
I30
I-6
tp244
I1
tp245
F0.0
s((I320
I-90
I5
tp246
I1
tp247
F0.0
s((I200
I-210
I10
tp248
I0
tp249
F0.0
s((I280
I30
I8
tp250
I1
tp251
F0.0
s((I320
I30
I-1
tp252
I1
tp253
F0.0
s((I360
I0
I-2
tp254
I1
tp255
F0.0
s((I360
I0
I-7
tp256
I1
tp257
F0.0
s((I400
I-120
I-5
tp258
I0
tp259
F1.0
s((I160
I-90
I8
tp260
I1
tp261
F0.0
s((I160
I-60
I2
tp262
I0
tp263
F1.0
s((I120
I-270
I10
tp264
I0
tp265
F0.0
s((I320
I60
I-1
tp266
I1
tp267
F0.0
s((I280
I-180
I-1
tp268
I0
tp269
F1.0
s(g266
I0
tp270
F1.0
s((I400
I0
I-8
tp271
I0
tp272
F12.0
s((I320
I-90
I-4
tp273
I0
tp274
F1.0
s((I280
I-30
I2
tp275
I0
tp276
F1.0
s((I320
I60
I2
tp277
I1
tp278
F0.0
s((I320
I-120
I-6
tp279
I0
tp280
F1.0
s((I280
I0
I9
tp281
I0
tp282
F1.0
s((I320
I-90
I10
tp283
I0
tp284
F5.0
s((I360
I-60
I8
tp285
I0
tp286
F3.0
s((I200
I-90
I-4
tp287
I1
tp288
F0.0
s(g70
I1
tp289
F0.0
s((I280
I-90
I-6
tp290
I0
tp291
F1.0
s((I400
I-90
I-5
tp292
I1
tp293
F0.0
s((I360
I-90
I0
tp294
I0
tp295
F10.0
s((I400
I-120
I-4
tp296
I1
tp297
F0.0
s((I200
I-120
I-4
tp298
I0
tp299
F2.0
s((I400
I-60
I-5
tp300
I1
tp301
F0.0
s((I360
I0
I0
tp302
I0
tp303
F15.0
s((I360
I-60
I-4
tp304
I1
tp305
F0.0
s((I320
I-30
I-8
tp306
I1
tp307
F0.0
s((I160
I-120
I7
tp308
I1
tp309
F0.0
s((I280
I-30
I6
tp310
I1
tp311
F0.0
s((I360
I-60
I-9
tp312
I0
tp313
F1.0
s((I280
I0
I10
tp314
I1
tp315
F0.0
s((I400
I-90
I-9
tp316
I0
tp317
F11.0
s((I280
I-30
I-3
tp318
I0
tp319
F1.0
s((I240
I-180
I-1
tp320
I0
tp321
F1.0
s((I160
I-150
I10
tp322
I1
tp323
F0.0
s((I160
I-90
I2
tp324
I1
tp325
F0.0
s((I400
I-90
I-8
tp326
I0
tp327
F11.0
s((I400
I-60
I-2
tp328
I1
tp329
F0.0
s((I280
I-60
I10
tp330
I0
tp331
F3.0
s((I280
I30
I9
tp332
I1
tp333
F0.0
s((I280
F-270.0
I10
tp334
I1
tp335
F0.0
s((I320
I90
I1
tp336
I1
tp337
F0.0
s((I400
I-150
I-9
tp338
I1
tp339
F0.0
s((I280
I-60
I7
tp340
I0
tp341
F2.0
s((I200
I-120
I4
tp342
I1
tp343
F0.0
s((I160
I-120
I8
tp344
I0
tp345
F1.0
s((I360
I0
I7
tp346
I0
tp347
F6.0
s((I360
I30
I-5
tp348
I0
tp349
F1.0
s((I240
I-150
I8
tp350
I1
tp351
F0.0
s((I200
I-90
I1
tp352
I1
tp353
F0.0
s((I360
I-120
I1
tp354
I0
tp355
F1.0
s((I400
I-30
I-2
tp356
I0
tp357
F9.0
s((I280
I-210
I10
tp358
I1
tp359
F0.0
s((I320
I90
I-3
tp360
I0
tp361
F1.0
s((I280
I30
I6
tp362
I1
tp363
F0.0
s((I280
I-180
I-5
tp364
I0
tp365
F2.0
s((I360
I-60
I1
tp366
I0
tp367
F14.0
s((I320
I0
I6
tp368
I1
tp369
F0.0
s((I360
I-60
I0
tp370
I1
tp371
F0.0
s((I320
I-90
I-2
tp372
I0
tp373
F1.0
s((I200
I-90
I-2
tp374
I0
tp375
F2.0
s((I400
I-90
I-3
tp376
I1
tp377
F0.0
s((I160
I-90
I6
tp378
I1
tp379
F0.0
s((I280
I-90
I10
tp380
I0
tp381
F5.0
s((I360
I-30
I0
tp382
I1
tp383
F1.0
s((I280
I-180
I-2
tp384
I1
tp385
F0.0
s((I400
I-120
I-7
tp386
I1
tp387
F0.0
s((I360
I0
I8
tp388
I1
tp389
F0.0
s((I320
I-30
I-5
tp390
I1
tp391
F0.0
s((I320
I-240
I10
tp392
I1
tp393
F0.0
s((I320
I-30
I-6
tp394
I0
tp395
F2.0
s((I280
I-30
I9
tp396
I1
tp397
F0.0
s((I280
I-210
I-8
tp398
I1
tp399
F0.0
s((I240
I-90
I4
tp400
I1
tp401
F0.0
s((I120
I-210
I10
tp402
I0
tp403
F1.0
s((I200
I-90
I-6
tp404
I1
tp405
F0.0
s((I200
I-90
I-7
tp406
I0
tp407
F1.0
s((I320
I-150
I-9
tp408
I0
tp409
F1.0
s((I320
I-30
I0
tp410
I0
tp411
F1.0
s((I160
I-90
I4
tp412
I1
tp413
F0.0
s((I360
I30
I4
tp414
I1
tp415
F0.0
s((I360
I0
I-9
tp416
I1
tp417
F0.0
s((I280
I60
I4
tp418
I0
tp419
F1.0
s((I320
I0
I3
tp420
I1
tp421
F0.0
s((I400
I-60
I-3
tp422
I1
tp423
F2.0
s((I240
I-30
I10
tp424
I1
tp425
F0.0
s((I360
I-30
I6
tp426
I0
tp427
F7.0
s((I320
I-30
I-2
tp428
I1
tp429
F0.0
s((I120
I-120
I10
tp430
I1
tp431
F0.0
s((I360
I-90
I-9
tp432
I0
tp433
F1.0
s((I240
I-120
I-7
tp434
I1
tp435
F0.0
s((I280
I-210
I-9
tp436
I1
tp437
F0.0
s(g412
I0
tp438
F1.0
s((I240
I-150
I10
tp439
I0
tp440
F5.0
s((I160
I-180
I10
tp441
I1
tp442
F0.0
s((I240
I-180
I3
tp443
I1
tp444
F1.0
s((I400
I-120
I-2
tp445
I1
tp446
F0.0
s((I320
I-90
I-3
tp447
I0
tp448
F1.0
s((I240
I-30
I7
tp449
I0
tp450
F1.0
s((I360
I30
I2
tp451
I0
tp452
F14.0
s((I360
I-60
I7
tp453
I1
tp454
F0.0
s((I320
I0
I4
tp455
I0
tp456
F1.0
s((I280
I-30
I1
tp457
I1
tp458
F0.0
s((I280
I-90
I-3
tp459
I1
tp460
F0.0
s((I120
F-240.0
I10
tp461
I1
tp462
F0.0
s((I280
I60
I3
tp463
I0
tp464
F1.0
s((I360
I30
I1
tp465
I1
tp466
F0.0
s((I320
I-30
I5
tp467
I1
tp468
F0.0
s((I360
I0
I1
tp469
I0
tp470
F6.0
s((I200
I-60
I-4
tp471
I0
tp472
F1.0
s((I360
I-120
I8
tp473
I1
tp474
F0.0
s((I280
I60
I8
tp475
I0
tp476
F1.0
s((I320
I30
I0
tp477
I0
tp478
F1.0
s((I400
I30
I-4
tp479
I1
tp480
F0.0
s((I320
I-60
I0
tp481
I1
tp482
F0.0
s((I400
I0
I-6
tp483
I1
tp484
F0.0
s(g471
I1
tp485
F0.0
s((I240
I0
I10
tp486
I0
tp487
F3.0
s((I320
I-60
I-3
tp488
I0
tp489
F1.0
s((I280
I-30
I-5
tp490
I1
tp491
F0.0
s(g488
I1
tp492
F0.0
s((I160
I-150
I8
tp493
I0
tp494
F2.0
s((I240
I-90
I6
tp495
I0
tp496
F2.0
s((I240
I-60
I9
tp497
I0
tp498
F1.0
s((I320
I-30
I8
tp499
I1
tp500
F0.0
s((I240
I-60
I8
tp501
I1
tp502
F0.0
s((I160
I-90
I7
tp503
I1
tp504
F0.0
s((I360
I-30
I-6
tp505
I0
tp506
F1.0
s((I360
I0
I2
tp507
I1
tp508
F0.0
s((I320
I-30
I2
tp509
I1
tp510
F0.0
s((I320
I30
I2
tp511
I1
tp512
F0.0
s(g416
I0
tp513
F2.0
s((I280
I-90
I3
tp514
I0
tp515
F1.0
s((I360
I-120
I2
tp516
I0
tp517
F1.0
s((I320
I-90
I7
tp518
I1
tp519
F0.0
s((I320
I-90
I6
tp520
I0
tp521
F1.0
s((I400
I-30
I-7
tp522
I1
tp523
F0.0
s((I200
I-270
I10
tp524
I1
tp525
F0.0
s((I320
I30
I-6
tp526
I0
tp527
F1.0
s((I360
I-60
I2
tp528
I0
tp529
F2.0
s(g208
I1
tp530
F0.0
s((I360
I0
I-1
tp531
I1
tp532
F0.0
s((I400
I-120
I-9
tp533
I1
tp534
F0.0
s((I240
I-120
I-6
tp535
I1
tp536
F0.0
s((I400
I-60
I-9
tp537
I1
tp538
F10.0
s((I200
I-120
I-7
tp539
I1
tp540
F0.0
s((I360
I-150
I8
tp541
I1
tp542
F0.0
s(g497
I1
tp543
F0.0
s((I120
I-180
I10
tp544
I1
tp545
F0.0
s((I200
I-90
I2
tp546
I0
tp547
F1.0
s((I320
I-150
I10
tp548
I1
tp549
F1.0
s((I320
I60
I-4
tp550
I0
tp551
F1.0
s((I320
I90
I-2
tp552
I1
tp553
F0.0
s((I120
I-150
I10
tp554
I0
tp555
F2.0
s((I320
I-90
I-5
tp556
I0
tp557
F1.0
s(g501
I0
tp558
F1.0
s((I400
I0
I-7
tp559
I1
tp560
F0.0
s((I320
I-60
I-5
tp561
I0
tp562
F1.0
s((I320
I-120
I-5
tp563
I1
tp564
F0.0
s((I400
I-120
I-8
tp565
I0
tp566
F11.0
s((I320
I-30
I1
tp567
I0
tp568
F1.0
s((I280
I-90
I-5
tp569
I1
tp570
F0.0
s((I320
I30
I1
tp571
I1
tp572
F0.0
s((I280
I60
I5
tp573
I0
tp574
F1.0
s((I200
I-90
I-9
tp575
I1
tp576
F0.0
s((I360
I-90
I1
tp577
I1
tp578
F0.0
s((I320
I-30
I10
tp579
I0
tp580
F8.0
s((I360
I-30
I4
tp581
I1
tp582
F0.0
s(g495
I1
tp583
F0.0
s((I360
I-90
I-5
tp584
I1
tp585
F0.0
s((I320
I-30
I-7
tp586
I0
tp587
F1.0
s((I280
I-90
I1
tp588
I1
tp589
F0.0
s((I400
I30
I-6
tp590
I1
tp591
F0.0
s(g244
I0
tp592
F2.0
s((I320
I-60
I1
tp593
I1
tp594
F0.0
s((I320
I-120
I-9
tp595
I0
tp596
F2.0
s((I320
I-60
I-9
tp597
I0
tp598
F1.0
s((I240
I-150
I-6
tp599
I1
tp600
F2.0
s((I280
I-120
I8
tp601
I0
tp602
F1.0
s((I240
I-30
I4
tp603
I0
tp604
F1.0
s((I160
I-90
I3
tp605
I0
tp606
F1.0
s((I360
I0
I-3
tp607
I1
tp608
F0.0
s((I280
I60
I6
tp609
I1
tp610
F0.0
s(g490
I0
tp611
F1.0
s((I360
I0
I-4
tp612
I0
tp613
F1.0
s((I200
I-150
I10
tp614
I1
tp615
F0.0
s((I360
I30
I-8
tp616
I1
tp617
F0.0
s((I240
I-180
I10
tp618
I1
tp619
F0.0
s((I360
I-90
I-8
tp620
I0
tp621
F1.0
s((I320
I-60
I-7
tp622
I0
tp623
F2.0
s((I240
I-240
I10
tp624
I1
tp625
F0.0
s((I160
I-210
I10
tp626
I1
tp627
F0.0
s(g336
I0
tp628
F1.0
s((I320
I-60
I2
tp629
I0
tp630
F0.0
s((I280
I-30
I-6
tp631
I1
tp632
F0.0
s((I240
I-30
I5
tp633
I1
tp634
F0.0
s((I280
I-30
I-2
tp635
I0
tp636
F1.0
s((I280
I-180
I-7
tp637
I0
tp638
F2.0
s((I320
I-60
I-1
tp639
I0
tp640
F1.0
s((I360
I-60
I4
tp641
I0
tp642
F12.0
s((I160
I-150
I9
tp643
I0
tp644
F2.0
s((I360
I0
I-8
tp645
I1
tp646
F0.0
s((I360
I-90
I4
tp647
I0
tp648
F7.0
s((I360
I60
I-7
tp649
I0
tp650
F1.0
s((I240
I-120
I10
tp651
I0
tp652
F2.0
s((I280
I-150
I10
tp653
I1
tp654
F0.0
s((I280
I-90
I2
tp655
I1
tp656
F0.0
s((I320
I-90
I-1
tp657
I1
tp658
F0.0
s((I160
I-120
I4
tp659
I1
tp660
F0.0
s((I360
I30
I-7
tp661
I0
tp662
F1.0
s((I360
I60
I-8
tp663
I1
tp664
F0.0
s((I360
I-120
I-1
tp665
I1
tp666
F0.0
s(g10
I0
tp667
F8.0
s(g14
I0
tp668
F6.0
s(g99
I0
tp669
F1.0
s((I360
I-90
I8
tp670
I0
tp671
F6.0
s(g20
I0
tp672
F1.0
s((I280
I-30
I-1
tp673
I0
tp674
F1.0
s(g28
I0
tp675
F1.0
s((I200
I-90
I-3
tp676
I1
tp677
F0.0
s((I200
I-90
I-1
tp678
I0
tp679
F2.0
s((I360
I-30
I7
tp680
I1
tp681
F0.0
s(g38
I0
tp682
F1.0
s((I360
I-60
I-3
tp683
I1
tp684
F0.0
s(g46
I0
tp685
F1.0
s(g52
I0
tp686
F4.0
s((I320
I-60
I-2
tp687
I0
tp688
F1.0
s(g58
I1
tp689
F0.0
s(g60
I1
tp690
F1.0
s(g62
I1
tp691
F0.0
s((I280
I-30
I4
tp692
I1
tp693
F0.0
s(g64
I0
tp694
F9.0
s(g66
I0
tp695
F2.0
s((I320
I0
I2
tp696
I0
tp697
F1.0
s(g386
I0
tp698
F9.0
s(g44
I0
tp699
F1.0
s(g74
I0
tp700
F1.0
s((I360
I30
I3
tp701
I1
tp702
F0.0
s((I280
I-90
I4
tp703
I0
tp704
F2.0
s((I200
I-120
I10
tp705
I0
tp706
F2.0
s((I360
I30
I-4
tp707
I1
tp708
F0.0
s(g332
I0
tp709
F1.0
s(g81
I1
tp710
F0.0
s((I360
I-60
I-1
tp711
I0
tp712
F10.0
s((I240
I-150
I9
tp713
I1
tp714
F0.0
s((I320
I-120
I-8
tp715
I0
tp716
F2.0
s((I240
I-150
I-8
tp717
I0
tp718
F2.0
s(g95
I0
tp719
F10.0
s((I280
I-30
I5
tp720
I0
tp721
F1.0
s((I240
I-150
I-9
tp722
I1
tp723
F0.0
s(g97
I1
tp724
F0.0
s((I320
I0
I7
tp725
I0
tp726
F1.0
s((I360
I-90
I2
tp727
I0
tp728
F3.0
s(g101
I1
tp729
F0.0
s(g372
I1
tp730
F0.0
s(g50
I0
tp731
F4.0
s((I200
I-120
I-6
tp732
I0
tp733
F1.0
s((I400
I-60
I-7
tp734
I1
tp735
F0.0
s((I400
I-60
I-8
tp736
I0
tp737
F10.0
s((I160
I-120
I5
tp738
I1
tp739
F0.0
s((I200
I-120
I3
tp740
I1
tp741
F0.0
s(g111
I0
tp742
F1.0
s((I360
I-30
I1
tp743
I1
tp744
F0.0
s(g119
I1
tp745
F0.0
s((I360
I-120
I0
tp746
I0
tp747
F1.0
s(g123
I0
tp748
F1.0
s(g127
I1
tp749
F0.0
s((I280
I-180
I0
tp750
I0
tp751
F1.0
s(g131
I1
tp752
F0.0
s((I360
I-120
I3
tp753
I1
tp754
F0.0
s((I320
I-60
I8
tp755
I0
tp756
F8.0
s(g83
I0
tp757
F1.0
s((I240
I-90
I5
tp758
I1
tp759
F0.0
s((I400
I-90
I-6
tp760
I0
tp761
F11.0
s(g139
I0
tp762
F1.0
s((I200
I-90
I-5
tp763
I1
tp764
F0.0
s((I360
I-60
I3
tp765
I1
tp766
F0.0
s((I320
I0
I9
tp767
I1
tp768
F0.0
s((I280
I-120
I3
tp769
I1
tp770
F0.0
s(g147
I1
tp771
F0.0
s((I360
I30
I5
tp772
I1
tp773
F0.0
s((I160
I-120
I6
tp774
I0
tp775
F2.0
s(g153
I0
tp776
F4.0
s(g720
I1
tp777
F0.0
s(g159
I1
tp778
F0.0
s(g30
I0
tp779
F1.0
s((I280
I-240
I10
tp780
I0
tp781
F1.0
s(g163
I1
tp782
F0.0
s(g165
I1
tp783
F0.0
s(g167
I0
tp784
F1.0
s(g169
I0
tp785
F9.0
s(g173
I1
tp786
F0.0
s((I240
I-90
I10
tp787
I0
tp788
F3.0
s(g177
I1
tp789
F1.0
s(g181
I1
tp790
F0.0
s((I200
I-90
I-8
tp791
I0
tp792
F1.0
s(g117
I0
tp793
F10.0
s((I200
I-180
I10
tp794
I0
tp795
F2.0
s(g187
I1
tp796
F1.0
s((I280
I-120
I4
tp797
I0
tp798
F1.0
s(g195
I1
tp799
F1.0
s((I320
I-30
I-4
tp800
I0
tp801
F2.0
s(g24
I0
tp802
F2.0
s((I280
I-30
I10
tp803
I0
tp804
F1.0
s((I360
I-120
I6
tp805
I0
tp806
F2.0
s(g236
I1
tp807
F0.0
s(g210
I1
tp808
F0.0
s((I400
I30
I-3
tp809
I1
tp810
F0.0
s(g157
I1
tp811
F0.0
s((I200
I-60
I-3
tp812
I1
tp813
F0.0
s((I400
I-90
I-4
tp814
I0
tp815
F9.0
s(g36
I0
tp816
F2.0
s(g222
I0
tp817
F2.0
s(g725
I1
tp818
F0.0
s((I360
I-30
I8
tp819
I0
tp820
F8.0
s(g228
I0
tp821
F1.0
s(g509
I0
tp822
F2.0
s((I320
I-30
I9
tp823
I1
tp824
F0.0
s(g232
I0
tp825
F10.0
s((I240
I-120
I-9
tp826
I1
tp827
F0.0
s((I240
I-120
I9
tp828
I1
tp829
F0.0
s((I360
I0
I3
tp830
I1
tp831
F0.0
s((I360
I30
I-2
tp832
I1
tp833
F0.0
s(g4
I1
tp834
F0.0
s(g191
I0
tp835
F1.0
s(g238
I0
tp836
F2.0
s(g242
I1
tp837
F0.0
s(g6
I1
tp838
F0.0
s(g246
I0
tp839
F1.0
s(g248
I1
tp840
F0.0
s(g8
I0
tp841
F5.0
s(g12
I0
tp842
F1.0
s(g398
I0
tp843
F2.0
s(g199
I0
tp844
F1.0
s(g18
I1
tp845
F0.0
s(g256
I0
tp846
F1.0
s(g22
I0
tp847
F2.0
s(g143
I0
tp848
F2.0
s(g262
I1
tp849
F0.0
s(g26
I1
tp850
F0.0
s(g212
I1
tp851
F0.0
s(g32
I0
tp852
F0.0
s(g34
I0
tp853
F11.0
s(g103
I1
tp854
F0.0
s(g109
I1
tp855
F0.0
s(g40
I0
tp856
F2.0
s(g271
I1
tp857
F0.0
s(g42
I0
tp858
F0.0
s(g273
I1
tp859
F0.0
s(g275
I1
tp860
F0.0
s(g279
I1
tp861
F0.0
s(g283
I1
tp862
F0.0
s(g285
I1
tp863
F0.0
s(g290
I1
tp864
F0.0
s(g292
I0
tp865
F9.0
s(g294
I1
tp866
F0.0
s(g68
I0
tp867
F5.0
s(g298
I1
tp868
F0.0
s(g300
I0
tp869
F10.0
s(g302
I1
tp870
F2.0
s(g767
I0
tp871
F7.0
s(g308
I0
tp872
F1.0
s((I320
I90
I0
tp873
I1
tp874
F0.0
s(g133
I1
tp875
F0.0
s(g832
I0
tp876
F1.0
s(g85
I1
tp877
F0.0
s(g87
I0
tp878
F1.0
s(g89
I1
tp879
F0.0
s(g320
I1
tp880
F0.0
s(g91
I1
tp881
F0.0
s(g93
I0
tp882
F11.0
s(g326
I1
tp883
F0.0
s(g330
I1
tp884
F0.0
s(g161
I1
tp885
F0.0
s(g338
I0
tp886
F10.0
s(g105
I1
tp887
F0.0
s(g344
I1
tp888
F0.0
s(g107
I0
tp889
F1.0
s((I360
I-30
I-1
tp890
I1
tp891
F0.0
s(g703
I1
tp892
F0.0
s(g352
I0
tp893
F1.0
s(g175
I0
tp894
F1.0
s((I320
I-60
I-8
tp895
I1
tp896
F0.0
s(g356
I1
tp897
F0.0
s(g113
I1
tp898
F0.0
s(g622
I1
tp899
F0.0
s(g121
I0
tp900
F0.0
s(g125
I1
tp901
F0.0
s(g129
I1
tp902
F0.0
s(g374
I1
tp903
F0.0
s(g135
I0
tp904
F1.0
s(g376
I0
tp905
F9.0
s(g380
I1
tp906
F0.0
s(g137
I1
tp907
F0.0
s(g895
I0
tp908
F1.0
s(g145
I1
tp909
F0.0
s(g268
I1
tp910
F0.0
s(g149
I1
tp911
F0.0
s(g390
I0
tp912
F2.0
s(g151
I0
tp913
F5.0
s(g155
I0
tp914
F1.0
s(g394
I1
tp915
F0.0
s(g396
I0
tp916
F2.0
s((I320
I-90
I4
tp917
I1
tp918
F0.0
s((I280
I-60
I6
tp919
I1
tp920
F0.0
s(g226
I1
tp921
F0.0
s(g348
I1
tp922
F1.0
s(g559
I0
tp923
F15.0
s(g410
I1
tp924
F0.0
s(g171
I0
tp925
F1.0
s(g418
I1
tp926
F0.0
s(g420
I0
tp927
F1.0
s(g179
I1
tp928
F0.0
s(g422
I0
tp929
F12.0
s(g183
I1
tp930
F0.0
s(g426
I1
tp931
F0.0
s(g185
I0
tp932
F4.0
s(g189
I1
tp933
F0.0
s((I360
I-90
I-6
tp934
I0
tp935
F1.0
s(g193
I0
tp936
F3.0
s(g434
I0
tp937
F1.0
s(g197
I0
tp938
F1.0
s(g436
I0
tp939
F1.0
s(g439
I1
tp940
F0.0
s(g443
I0
tp941
F0.0
s(g201
I0
tp942
F2.0
s(g384
I0
tp943
F1.0
s(g204
I0
tp944
F1.0
s((I320
I60
I-6
tp945
I0
tp946
F2.0
s(g511
I0
tp947
F1.0
s(g451
I1
tp948
F0.0
s(g453
I0
tp949
F10.0
s(g455
I1
tp950
F0.0
s(g216
I0
tp951
F1.0
s(g459
I0
tp952
F2.0
s(g218
I1
tp953
F0.0
s(g264
I1
tp954
F0.0
s(g465
I0
tp955
F6.0
s(g220
I0
tp956
F1.0
s(g224
I0
tp957
F1.0
s(g919
I0
tp958
F2.0
s(g475
I1
tp959
F0.0
s(g234
I1
tp960
F0.0
s((I280
I30
I7
tp961
I0
tp962
F1.0
s(g493
I1
tp963
F0.0
s(g240
I1
tp964
F0.0
s(g54
I1
tp965
F0.0
s(g890
I0
tp966
F9.0
s(g250
I0
tp967
F1.0
s(g503
I0
tp968
F1.0
s(g252
I0
tp969
F1.0
s(g445
I0
tp970
F1.0
s((I280
I-120
I7
tp971
I1
tp972
F0.0
s(g505
I1
tp973
F0.0
s(g258
I1
tp974
F12.0
s(g260
I0
tp975
F1.0
s(g78
I1
tp976
F0.0
s((I360
I0
I-5
tp977
I0
tp978
F1.0
s(g461
I0
tp979
F1.0
s(g516
I1
tp980
F0.0
s(g518
I0
tp981
F1.0
s(g828
I0
tp982
F3.0
s(g520
I1
tp983
F0.0
s(g522
I0
tp984
F11.0
s(g277
I0
tp985
F1.0
s(g526
I1
tp986
F0.0
s(g281
I1
tp987
F0.0
s(g528
I1
tp988
F0.0
s(g533
I0
tp989
F4.0
s(g287
I0
tp990
F1.0
s(g537
I0
tp991
F5.0
s(g539
I0
tp992
F1.0
s(g296
I0
tp993
F1.0
s(g546
I1
tp994
F0.0
s(g304
I0
tp995
F1.0
s(g306
I0
tp996
F1.0
s(g550
I1
tp997
F0.0
s(g554
I1
tp998
F0.0
s(g310
I0
tp999
F1.0
s(g584
I0
tp1000
F1.0
s(g230
I1
tp1001
F0.0
s(g312
I1
tp1002
F0.0
s(g563
I0
tp1003
F1.0
s(g314
I0
tp1004
F1.0
s(g316
I1
tp1005
F0.0
s(g318
I1
tp1006
F0.0
s(g565
I1
tp1007
F0.0
s(g322
I0
tp1008
F1.0
s(g569
I0
tp1009
F1.0
s(g324
I0
tp1010
F1.0
s(g575
I0
tp1011
F1.0
s(g577
I0
tp1012
F3.0
s(g328
I0
tp1013
F15.0
s(g579
I1
tp1014
F0.0
s(g334
I0
tp1015
F0.0
s((I360
I30
I-3
tp1016
I0
tp1017
F1.0
s(g340
I1
tp1018
F0.0
s(g402
I1
tp1019
F0.0
s(g342
I0
tp1020
F2.0
s(g588
I0
tp1021
F2.0
s(g346
I1
tp1022
F0.0
s(g350
I0
tp1023
F1.0
s(g593
I0
tp1024
F1.0
s((I240
I-150
I-7
tp1025
I1
tp1026
F0.0
s(g541
I0
tp1027
F4.0
s(g601
I1
tp1028
F0.0
s(g354
I1
tp1029
F0.0
s(g358
I0
tp1030
F1.0
s(g360
I1
tp1031
F0.0
s(g362
I0
tp1032
F1.0
s((I360
I-60
I-2
tp1033
I1
tp1034
F0.0
s(g364
I1
tp1035
F0.0
s(g366
I1
tp1036
F0.0
s(g603
I1
tp1037
F0.0
s(g368
I0
tp1038
F1.0
s(g607
I0
tp1039
F1.0
s(g370
I0
tp1040
F13.0
s(g612
I1
tp1041
F0.0
s(g514
I1
tp1042
F0.0
s(g378
I0
tp1043
F1.0
s(g620
I1
tp1044
F0.0
s(g382
I0
tp1045
F8.0
s(g388
I0
tp1046
F7.0
s(g629
I1
tp1047
F1.0
s(g392
I0
tp1048
F2.0
s(g635
I1
tp1049
F0.0
s(g581
I0
tp1050
F11.0
s((I320
I-90
I9
tp1051
I1
tp1052
F0.0
s(g457
I0
tp1053
F2.0
s(g687
I1
tp1054
F0.0
s(g400
I0
tp1055
F1.0
s(g641
I1
tp1056
F0.0
s(g467
I0
tp1057
F1.0
s(g404
I0
tp1058
F1.0
s(g408
I1
tp1059
F0.0
s(g647
I1
tp1060
F1.0
s(g477
I1
tp1061
F0.0
s(g651
I1
tp1062
F0.0
s(g414
I0
tp1063
F3.0
s(g424
I0
tp1064
F3.0
s(g486
I1
tp1065
F0.0
s(g428
I0
tp1066
F3.0
s((I320
I-120
I-4
tp1067
I1
tp1068
F0.0
s(g430
I0
tp1069
F1.0
s(g432
I1
tp1070
F0.0
s(g961
I1
tp1071
F0.0
s(g1033
I0
tp1072
F13.0
s((I320
I-90
I8
tp1073
I1
tp1074
F0.0
s(g441
I0
tp1075
F2.0
s(g657
I0
tp1076
F3.0
s(g447
I1
tp1077
F0.0
s(g670
I1
tp1078
F0.0
s(g631
I0
tp1079
F1.0
s(g449
I1
tp1080
F0.0
s(g977
I1
tp1081
F0.0
s(g463
I1
tp1082
F0.0
s(g680
I0
tp1083
F1.0
s(g469
I1
tp1084
F0.0
s(g683
I0
tp1085
F1.0
s(g473
I0
tp1086
F5.0
s(g649
I1
tp1087
F0.0
s(g692
I0
tp1088
F2.0
s(g479
I0
tp1089
F4.0
s(g481
I0
tp1090
F1.0
s(g483
I0
tp1091
F5.0
s(g56
I1
tp1092
F0.0
s((I360
I-90
I7
tp1093
I0
tp1094
F4.0
s(g1067
I0
tp1095
F1.0
s(g1073
I0
tp1096
F4.0
s(g696
I1
tp1097
F0.0
s(g665
I0
tp1098
F1.0
s(g701
I0
tp1099
F7.0
s(g1093
I1
tp1100
F0.0
s(g705
I1
tp1101
F1.0
s(g499
I0
tp1102
F7.0
s(g740
I0
tp1103
F1.0
s((I360
I-90
I6
tp1104
I0
tp1105
F5.0
s(g1104
I1
tp1106
F0.0
s(g661
I1
tp1107
F0.0
s(g507
I0
tp1108
F13.0
s(g711
I1
tp1109
F0.0
s(g663
I0
tp1110
F1.0
s((I160
I-120
I9
tp1111
I1
tp1112
F0.0
s(g713
I0
tp1113
F1.0
s(g715
I1
tp1114
F0.0
s(g717
I1
tp1115
F0.0
s(g571
I0
tp1116
F1.0
s(g722
I0
tp1117
F1.0
s(g727
I1
tp1118
F0.0
s(g524
I0
tp1119
F0.0
s(g732
I1
tp1120
F0.0
s(g531
I0
tp1121
F10.0
s(g734
I0
tp1122
F11.0
s(g736
I1
tp1123
F0.0
s(g738
I0
tp1124
F2.0
s(g1051
I0
tp1125
F5.0
s(g16
I0
tp1126
F1.0
s(g743
I0
tp1127
F14.0
s(g544
I0
tp1128
F0.0
s(g115
I0
tp1129
F2.0
s(g746
I1
tp1130
F0.0
s(g548
I0
tp1131
F3.0
s(g707
I0
tp1132
F1.0
s(g750
I1
tp1133
F0.0
s(g552
I0
tp1134
F1.0
s(g556
I1
tp1135
F0.0
s(g753
I0
tp1136
F8.0
s(g214
I0
tp1137
F10.0
s(g755
I1
tp1138
F0.0
s(g758
I0
tp1139
F1.0
s(g760
I1
tp1140
F0.0
s(g561
I1
tp1141
F0.0
s(g763
I0
tp1142
F1.0
s(g765
I0
tp1143
F9.0
s(g769
I0
tp1144
F1.0
s(g567
I1
tp1145
F0.0
s(g934
I1
tp1146
F0.0
s(g917
I0
tp1147
F1.0
s(g772
I0
tp1148
F9.0
s(g1111
I0
tp1149
F1.0
s(g573
I1
tp1150
F0.0
s(g774
I1
tp1151
F0.0
s(g819
I1
tp1152
F0.0
s(g535
I0
tp1153
F2.0
s(g72
I1
tp1154
F0.0
s(g206
I1
tp1155
F0.0
s(g780
I1
tp1156
F0.0
s(g586
I1
tp1157
F0.0
s(g590
I0
tp1158
F3.0
s(g595
I1
tp1159
F0.0
s(g597
I1
tp1160
F0.0
s(g787
I1
tp1161
F0.0
s(g599
I0
tp1162
F0.0
s(g873
I0
tp1163
F1.0
s(g945
I1
tp1164
F0.0
s(g791
I1
tp1165
F0.0
s(g794
I1
tp1166
F0.0
s(g797
I1
tp1167
F0.0
s(g605
I1
tp1168
F0.0
s(g609
I0
tp1169
F1.0
s(g141
I1
tp1170
F0.0
s(g406
I1
tp1171
F0.0
s(g614
I0
tp1172
F0.0
s(g616
I0
tp1173
F1.0
s(g800
I1
tp1174
F0.0
s(g618
I0
tp1175
F2.0
s(g676
I0
tp1176
F2.0
s(g624
I0
tp1177
F1.0
s(g803
I1
tp1178
F0.0
s(g626
I0
tp1179
F2.0
s(g673
I1
tp1180
F0.0
s(g805
I1
tp1181
F0.0
s(g809
I0
tp1182
F5.0
s(g678
I1
tp1183
F0.0
s(g254
I0
tp1184
F11.0
s(g812
I0
tp1185
F1.0
s(g637
I1
tp1186
F0.0
s(g1025
I0
tp1187
F2.0
s(g814
I1
tp1188
F0.0
s(g643
I1
tp1189
F0.0
s(g971
I0
tp1190
F1.0
s(g645
I0
tp1191
F1.0
s(g633
I0
tp1192
F1.0
s(g823
I0
tp1193
F6.0
s(g653
I0
tp1194
F2.0
s(g1016
I1
tp1195
F0.0
s(g639
I1
tp1196
F0.0
s(g655
I0
tp1197
F2.0
s(g826
I0
tp1198
F1.0
s(g659
I0
tp1199
F1.0
s(g830
I0
tp1200
F5.0
s.