ccollections
defaultdict
p0
(c__builtin__
float
p1
tp2
Rp3
((I40
I-80
I-5
tp4
I1
tp5
F0.0
s((I200
I0
I10
tp6
I0
tp7
F0.7935891304772116
s((I60
I-80
I-9
tp8
I0
tp9
F-0.578989368049168
s((I100
I260
I2
tp10
I0
tp11
F0.39046583333333335
s((I40
I40
I-8
tp12
I1
tp13
F0.0
s((I200
I-60
I-1
tp14
I1
tp15
F0.0
s((I380
I20
I3
tp16
I0
tp17
F0.8332402919801833
s((I40
I-120
I1
tp18
I0
tp19
F-1.8293708333333334
s((I-40
I80
I3
tp20
I1
tp21
F0.0
s((I160
I-120
I-8
tp22
I1
tp23
F0.0
s((I200
I0
I1
tp24
I1
tp25
F0.0
s((I-20
I80
I2
tp26
I1
tp27
F0.0
s((I260
F-180.0
I10
tp28
I0
tp29
F-2.4
s((I400
I20
I-7
tp30
I1
tp31
F0.0
s((I280
I40
I1
tp32
I1
tp33
F0.0
s((I-20
I40
I-1
tp34
I0
tp35
F0.6523021713018544
s((I60
I-40
I-5
tp36
I1
tp37
F0.0
s((I120
I-20
I-4
tp38
I0
tp39
F0.8167678151966077
s((I40
I-80
I-9
tp40
I0
tp41
F-1.7996607490159464
s((I360
I0
I3
tp42
I1
tp43
F0.0
s((I80
I120
I8
tp44
I1
tp45
F0.0
s((I-40
I60
I2
tp46
I1
tp47
F0.0
s((I180
I-120
I4
tp48
I1
tp49
F0.0
s((I200
I-40
I4
tp50
I0
tp51
F0.8330791487480136
s((I40
I-100
I2
tp52
I0
tp53
F-2.78475234375
s((I240
I260
I-4
tp54
I1
tp55
F0.39046583333333335
s((I180
I160
I10
tp56
I1
tp57
F0.0
s((I120
I-100
I0
tp58
I1
tp59
F0.0
s((I100
I-20
I5
tp60
I1
tp61
F0.0
s((I20
I60
I10
tp62
I1
tp63
F0.0
s((I320
I-120
I10
tp64
I0
tp65
F-2.8957959635416666
s((I40
I-120
I3
tp66
I0
tp67
F-1.8870833333333332
s((I200
I0
I2
tp68
I0
tp69
F0.8331055574824253
s((I400
I100
I-5
tp70
I0
tp71
F0.8336803616801496
s((I400
I20
I-6
tp72
I0
tp73
F0.837813306507335
s((I200
I0
I-3
tp74
I0
tp75
F0.7531791149879977
s((I-40
I60
I-8
tp76
I0
tp77
F-4.209812122249307
s((I120
I-40
I3
tp78
I0
tp79
F0.8180907074204458
s((I20
I0
I-5
tp80
I1
tp81
F-3.9750907033783585
s((I0
I20
I-2
tp82
I1
tp83
F0.0
s((I160
I200
I-7
tp84
I1
tp85
F0.0
s((I300
I-80
I-5
tp86
I1
tp87
F0.0
s((I120
I0
I4
tp88
I1
tp89
F0.0
s((I20
I-20
I-8
tp90
I0
tp91
F-4.371819873243985
s((I300
I100
I3
tp92
I0
tp93
F0.39046583333333335
s((I200
I-60
I-2
tp94
I1
tp95
F0.0
s((I100
I-60
I5
tp96
I1
tp97
F0.0
s((I-20
I40
I2
tp98
I0
tp99
F0.29654393657875766
s((I180
I-20
I5
tp100
I1
tp101
F0.0
s((I-40
I80
I0
tp102
I1
tp103
F0.0
s((I100
I140
I7
tp104
I1
tp105
F0.0
s((I260
I20
I10
tp106
I1
tp107
F0.0
s((I20
I-60
I5
tp108
I1
tp109
F0.0
s((I120
I-80
I3
tp110
I0
tp111
F0.8034605032737476
s((I100
I180
I2
tp112
I0
tp113
F0.5183050237473529
s((I40
I0
I-5
tp114
I0
tp115
F0.5673899674731215
s((I40
I-60
I-9
tp116
I1
tp117
F-7.34942145917231
s((I80
I40
I-8
tp118
I1
tp119
F0.0
s((I100
I-100
I6
tp120
I1
tp121
F0.0
s((I160
I-120
I-9
tp122
I1
tp123
F0.0
s((I220
I0
I-4
tp124
I1
tp125
F0.0
s((I160
I100
I10
tp126
I0
tp127
F0.4865932161458334
s((I80
I-80
I10
tp128
I0
tp129
F-2.866235995719401
s((I180
I-120
I9
tp130
I1
tp131
F0.0
s((I-20
I80
I-7
tp132
I0
tp133
F-5.5612997989283794
s((I60
I-40
I7
tp134
I0
tp135
F0.3608125
s((I80
I120
I7
tp136
I1
tp137
F0.0
s((I20
I0
I0
tp138
I1
tp139
F0.0
s((I-40
I60
I1
tp140
I1
tp141
F0.0
s((I240
I-60
I-9
tp142
I1
tp143
F0.0
s((I300
I60
I5
tp144
I0
tp145
F0.7406517407062019
s((I140
I240
I-7
tp146
I1
tp147
F0.39046583333333335
s((I80
I-140
I10
tp148
I0
tp149
F-1.8091020833333333
s((I80
I20
I-9
tp150
I0
tp151
F0.39046583333333335
s((I360
I-40
I6
tp152
I1
tp153
F0.0
s((I80
I40
I-6
tp154
I0
tp155
F0.39046583333333335
s((I220
I-40
I-7
tp156
I1
tp157
F0.0
s((I20
I-60
I6
tp158
I0
tp159
F-1.9583333333333333
s((I120
I260
I-3
tp160
I1
tp161
F0.0
s((I280
I-120
I10
tp162
I0
tp163
F-1.8091020833333333
s((I20
I80
I-6
tp164
I1
tp165
F0.0
s((I40
I60
I8
tp166
I0
tp167
F0.5489949616666667
s((I140
I0
I-1
tp168
I0
tp169
F0.8282136586853994
s((I60
I-120
I-7
tp170
I1
tp171
F0.0
s((I120
I-20
I2
tp172
I0
tp173
F0.8262230278875041
s((I60
I20
I7
tp174
I1
tp175
F0.0
s((I80
I40
I-5
tp176
I0
tp177
F0.39046583333333335
s((I140
I-200
I10
tp178
I0
tp179
F-3.1791666666666663
s((I220
I0
I10
tp180
I0
tp181
F0.7788410994468966
s((I180
I-80
I4
tp182
I1
tp183
F0.0
s((I200
I-120
I2
tp184
I0
tp185
F0.59193186546
s((I120
I0
I3
tp186
I1
tp187
F0.0
s((I260
I20
I3
tp188
I0
tp189
F0.8332675933845597
s((I40
I40
I-9
tp190
I0
tp191
F0.7959377407898969
s((I120
I-100
I1
tp192
I1
tp193
F0.0
s((I220
I-120
I-5
tp194
I0
tp195
F0.5394055112658334
s((I200
I-20
I1
tp196
I0
tp197
F0.8331459879795073
s((I60
I-20
I4
tp198
I0
tp199
F0.2512127083333333
s((I40
I0
I-3
tp200
I1
tp201
F0.7439492156805432
s((I80
I-20
I-4
tp202
I0
tp203
F0.7964661433824143
s((I380
I0
I-7
tp204
I0
tp205
F0.0
s((I320
I-60
I-8
tp206
I0
tp207
F0.8328905811353148
s((I280
I80
I7
tp208
I1
tp209
F0.0
s((I100
I0
I6
tp210
I1
tp211
F0.0
s((I220
I20
I-2
tp212
I1
tp213
F0.0
s((I380
I60
I1
tp214
I1
tp215
F0.0
s((I60
I0
I-8
tp216
I1
tp217
F0.0
s((I220
I240
I3
tp218
I1
tp219
F0.0
s((I-20
I80
I-3
tp220
I0
tp221
F0.8020217091742143
s((I0
I40
I-8
tp222
I0
tp223
F-1.7337155944428995
s((I180
I180
I10
tp224
I1
tp225
F0.39046583333333335
s((I0
I80
I-5
tp226
I1
tp227
F-4.478333333333333
s((I40
I-20
I7
tp228
I1
tp229
F0.0
s((I280
I-80
I1
tp230
I0
tp231
F0.8290098437583358
s((I200
I-60
I1
tp232
I0
tp233
F0.8292068983719758
s((I100
I-40
I-8
tp234
I0
tp235
F0.39046583333333335
s((I80
I220
I7
tp236
I0
tp237
F0.0
s((I300
I0
I-3
tp238
I0
tp239
F0.8332936610832822
s((I120
I-100
I2
tp240
I0
tp241
F0.7719922355531939
s((I280
I-20
I1
tp242
I0
tp243
F0.8332127813802457
s((I360
I-40
I5
tp244
I1
tp245
F0.0
s((I60
I80
I10
tp246
I0
tp247
F0.798239843089602
s((I60
I0
I9
tp248
I0
tp249
F0.5601459202703349
s((I20
I100
I-4
tp250
I0
tp251
F-1.9583333333333333
s((I160
I-100
I-6
tp252
I1
tp253
F0.0
s((I100
I60
I-8
tp254
I0
tp255
F-1.9583333333333333
s((I240
I0
I10
tp256
I1
tp257
F0.0
s((I220
F-160.0
I10
tp258
I0
tp259
F-2.4
s((I80
I-40
I-7
tp260
I0
tp261
F0.7599528502037043
s((I240
I-140
I-9
tp262
I1
tp263
F0.0
s((I0
I80
I-4
tp264
I0
tp265
F0.6911481366999578
s((I240
I-80
I10
tp266
I0
tp267
F-2.9116901041666665
s((I20
I0
I1
tp268
I1
tp269
F0.0
s((I280
I140
I1
tp270
I0
tp271
F0.7096180572698405
s((I340
I20
I10
tp272
I1
tp273
F0.0
s((I80
I0
I8
tp274
I0
tp275
F0.7755431082694759
s((I60
I0
I-5
tp276
I0
tp277
F0.7661251635351021
s((I80
I160
I6
tp278
I0
tp279
F0.5752900999622961
s((I-40
I80
I-9
tp280
I1
tp281
F-6.284253523373696
s((I80
I-20
I3
tp282
I0
tp283
F0.39046583333333335
s((I140
I20
I-2
tp284
I1
tp285
F0.0
s((I0
I40
I1
tp286
I0
tp287
F-1.8293708333333334
s((I400
I-40
I-3
tp288
I1
tp289
F0.0
s((I20
I-60
I-8
tp290
I0
tp291
F-5.900747311565471
s((I20
I-80
I7
tp292
I1
tp293
F0.0
s((I100
I-100
I8
tp294
I1
tp295
F0.0
s((I100
I0
I5
tp296
I1
tp297
F0.0
s((I140
I-160
I10
tp298
I1
tp299
F0.0
s((I420
I-60
I-9
tp300
I0
tp301
F0.9829468322132949
s((I80
I-40
I-6
tp302
I1
tp303
F0.0
s((I160
I-100
I8
tp304
I0
tp305
F0.8240031580804263
s((I40
I100
I-6
tp306
I0
tp307
F-1.8870833333333332
s((I60
I-40
I1
tp308
I1
tp309
F0.7718431889453754
s((I-20
I80
I-5
tp310
I0
tp311
F-5.572834252253268
s((I140
I-100
I-7
tp312
I1
tp313
F0.0
s((I400
I-20
I-5
tp314
I1
tp315
F0.0
s((I40
I0
I1
tp316
I1
tp317
F0.0
s((I80
I20
I6
tp318
I0
tp319
F0.7824899789703561
s((I400
I0
I-8
tp320
I0
tp321
F0.8257427222183977
s((I120
I260
I0
tp322
I0
tp323
F0.39046583333333335
s((I80
I-20
I2
tp324
I1
tp325
F0.0
s((I60
I-20
I-6
tp326
I0
tp327
F0.8155463901549007
s((I80
I-120
I-7
tp328
I0
tp329
F0.5455857195768152
s((I100
I80
I-5
tp330
I0
tp331
F0.4606395782157867
s((I340
I60
I-5
tp332
I1
tp333
F0.7282964293632568
s((I360
I-60
I8
tp334
I0
tp335
F0.8265582300914776
s((I380
I80
I0
tp336
I1
tp337
F0.0
s((I0
I40
I2
tp338
I1
tp339
F-2.039811099804052
s((I20
I-80
I0
tp340
I0
tp341
F-1.9208333333333334
s((I160
I200
I-6
tp342
I0
tp343
F0.39046583333333335
s((I140
I-20
I-4
tp344
I1
tp345
F0.0
s((I160
I-100
I-7
tp346
I1
tp347
F0.0
s((I80
I20
I10
tp348
I0
tp349
F0.8077705522142755
s((I60
I-60
I-7
tp350
I0
tp351
F0.6450893836311328
s((I100
I100
I0
tp352
I0
tp353
F0.5633108980516488
s((I100
I100
I-1
tp354
I1
tp355
F0.0
s((I-20
I100
I-9
tp356
I0
tp357
F-4.725
s((I20
I80
I-1
tp358
I0
tp359
F0.6737486693266309
s((I80
I60
I6
tp360
I0
tp361
F0.8169957194227018
s((I180
I-20
I9
tp362
I1
tp363
F0.0
s((I400
I80
I-6
tp364
I1
tp365
F0.0
s((I60
I80
I4
tp366
I0
tp367
F0.4765972974491667
s((I340
I20
I9
tp368
I1
tp369
F0.0
s((I140
I-80
I10
tp370
I1
tp371
F0.39046583333333335
s((I20
I100
I-9
tp372
I1
tp373
F0.0
s((I280
I20
I0
tp374
I1
tp375
F0.0
s((I80
I-120
I-6
tp376
I1
tp377
F0.0
s(g42
I0
tp378
F0.8118001170591163
s((I80
I40
I4
tp379
I0
tp380
F0.7414659071945012
s((I60
I-40
I-4
tp381
I1
tp382
F0.0
s((I260
I40
I10
tp383
I1
tp384
F0.0
s((I400
I20
I-3
tp385
I0
tp386
F0.833267944803165
s((I20
I80
I-3
tp387
I1
tp388
F0.0
s((I80
I160
I7
tp389
I1
tp390
F0.0
s((I60
I-60
I-6
tp391
I1
tp392
F0.0
s((I0
I60
I-5
tp393
I0
tp394
F0.7716009816462
s((I340
I20
I5
tp395
I0
tp396
F0.8331784434515254
s((I320
I-100
I10
tp397
I1
tp398
F0.0
s((I80
I-80
I7
tp399
I1
tp400
F0.0
s((I60
I60
I2
tp401
I1
tp402
F0.0
s((I80
I40
I0
tp403
I1
tp404
F0.0
s((I220
I20
I-6
tp405
I0
tp406
F0.6406490935864435
s((I60
I-100
I-9
tp407
I1
tp408
F-1.3546729898244174
s((I20
I20
I-7
tp409
I0
tp410
F0.6629284689591353
s((I60
I-40
I-9
tp411
I1
tp412
F0.0
s((I60
I200
I-8
tp413
I1
tp414
F0.0
s((I-20
I20
I5
tp415
I1
tp416
F0.0
s((I300
I-100
I-9
tp417
I1
tp418
F0.0
s((I380
I40
I3
tp419
I0
tp420
F0.8332713715078717
s((I260
I-40
I5
tp421
I1
tp422
F0.0
s((I220
I-60
I-5
tp423
I1
tp424
F0.0
s((I300
I-80
I-4
tp425
I1
tp426
F0.0
s((I100
I40
I-5
tp427
I0
tp428
F-2.5757287020833335
s((I220
I-100
I-7
tp429
I0
tp430
F0.8267735078931715
s((I140
I-120
I-3
tp431
I1
tp432
F0.0
s((I120
I-40
I-5
tp433
I0
tp434
F0.4399456637333333
s((I-40
I60
I6
tp435
I0
tp436
F0.3914258333333333
s((I360
I80
I4
tp437
I1
tp438
F0.0
s((I60
I-140
I10
tp439
I1
tp440
F0.0
s((I100
I0
I-9
tp441
I0
tp442
F-2.4
s((I60
I0
I-3
tp443
I0
tp444
F0.7804841969039343
s((I280
I20
I4
tp445
I0
tp446
F0.8333136966975981
s((I80
I80
I-1
tp447
I1
tp448
F0.0
s((I340
I80
I-4
tp449
I0
tp450
F0.7082582431945099
s((I280
I80
I8
tp451
I0
tp452
F0.3973058333333333
s((I60
I-100
I-5
tp453
I1
tp454
F-0.22742781786459776
s((I-20
I40
I7
tp455
I0
tp456
F-0.48352908427652097
s((I300
I-100
I-8
tp457
I0
tp458
F0.8307127328877528
s((I-40
I60
I-9
tp459
I1
tp460
F-4.011511439226002
s((I280
I40
I9
tp461
I0
tp462
F0.8119974413684903
s((I100
I80
I2
tp463
I1
tp464
F0.0
s((I140
I-20
I-3
tp465
I1
tp466
F0.0
s((I80
I-60
I9
tp467
I0
tp468
F0.7817327487121848
s((I420
I-40
I-8
tp469
I1
tp470
F0.0
s((I-20
I80
I4
tp471
I0
tp472
F0.17437509017945596
s((I240
I240
I-4
tp473
I0
tp474
F0.5235053520666667
s((I220
I-60
I10
tp475
I0
tp476
F-2.951041666666667
s((I120
I-40
I-4
tp477
I1
tp478
F0.0
s((I80
I20
I1
tp479
I1
tp480
F0.0
s((I180
I-100
I6
tp481
I0
tp482
F0.8119134822805294
s((I180
I-80
I2
tp483
I1
tp484
F0.0
s((I300
I160
I-8
tp485
I1
tp486
F0.0
s((I0
I20
I-9
tp487
I0
tp488
F-0.011841140883752967
s((I-20
I100
I-7
tp489
I0
tp490
F-4.549166666666666
s((I380
I20
I-5
tp491
I0
tp492
F0.8310000515907074
s((I280
I0
I4
tp493
I1
tp494
F0.0
s((I220
I-100
I-3
tp495
I1
tp496
F0.0
s((I-20
I40
I4
tp497
I1
tp498
F-0.17217029142985302
s((I380
I80
I2
tp499
I0
tp500
F0.8332421872962565
s((I40
I-80
I-1
tp501
I0
tp502
F-1.8870833333333332
s((I20
I120
I-5
tp503
I1
tp504
F0.0
s((I60
F-200.0
I10
tp505
I1
tp506
F0.0
s((I140
I-20
I-1
tp507
I0
tp508
F0.830374290073792
s((I220
I-40
I-1
tp509
I0
tp510
F0.8328767144616831
s((I100
I140
I-8
tp511
I1
tp512
F0.0
s((I180
I-60
I7
tp513
I0
tp514
F0.8329456275659499
s((I40
I80
I-7
tp515
I0
tp516
F-1.8567083333333336
s((I100
I40
I2
tp517
I1
tp518
F0.0
s((I220
I20
I-1
tp519
I0
tp520
F0.8332496790355174
s((I80
I80
I6
tp521
I1
tp522
F0.0
s((I80
I120
I10
tp523
I0
tp524
F0.7590972468422416
s((I220
I-80
I-3
tp525
I0
tp526
F0.817517820319611
s((I80
I-20
I-2
tp527
I1
tp528
F0.0
s((I340
I60
I9
tp529
I1
tp530
F0.0
s((I20
I-40
I3
tp531
I1
tp532
F0.0
s((I20
I-40
I-8
tp533
I1
tp534
F-6.297315138053701
s((I60
I200
I-7
tp535
I1
tp536
F0.39046583333333335
s((I160
I-40
I10
tp537
I1
tp538
F0.0
s((I220
I-60
I-3
tp539
I0
tp540
F0.8306696535284568
s((I220
I-40
I-9
tp541
I1
tp542
F0.0
s((I240
I20
I10
tp543
I1
tp544
F0.0
s((I140
I60
I10
tp545
I0
tp546
F0.4456244661458333
s((I180
I-60
I8
tp547
I1
tp548
F0.0
s((I-40
I100
I-3
tp549
I0
tp550
F-3.398333333333333
s((I100
I60
I3
tp551
I0
tp552
F0.7551559012381966
s((I100
I-120
I4
tp553
I1
tp554
F0.0
s((I80
I140
I4
tp555
I1
tp556
F0.0
s((I260
I0
I5
tp557
I0
tp558
F0.8333256549698453
s((I100
I60
I1
tp559
I1
tp560
F0.0
s((I-20
I100
I-5
tp561
I1
tp562
F-2.4
s((I200
I-20
I-4
tp563
I1
tp564
F0.0
s((I220
F-120.0
I10
tp565
I1
tp566
F0.0
s((I60
I-60
I-9
tp567
I1
tp568
F0.0
s((I140
I-60
I-1
tp569
I1
tp570
F0.0
s((I60
I0
I3
tp571
I0
tp572
F0.5683262393581001
s((I100
I20
I5
tp573
I0
tp574
F0.6494862822561009
s((I60
I0
I-1
tp575
I0
tp576
F0.738830035254003
s(g461
I1
tp577
F0.0
s((I300
I20
I-5
tp578
I1
tp579
F0.0
s((I260
I-100
I7
tp580
I1
tp581
F0.0
s((I260
I-80
I3
tp582
I0
tp583
F0.8320018485270695
s((I60
I20
I6
tp584
I1
tp585
F0.0
s((I400
I-40
I-6
tp586
I0
tp587
F0.8284918713165121
s((I100
I20
I-1
tp588
I1
tp589
F0.0
s((I80
I100
I-9
tp590
I0
tp591
F-2.4
s((I200
I-80
I2
tp592
I0
tp593
F0.8210971192004993
s((I160
I-80
I-7
tp594
I0
tp595
F0.82047364036513
s((I120
I0
I2
tp596
I1
tp597
F0.0
s((I340
I0
I7
tp598
I1
tp599
F0.0
s((I160
I-60
I10
tp600
I1
tp601
F0.8325414200238772
s((I280
I-60
I-2
tp602
I1
tp603
F0.0
s((I260
I0
I6
tp604
I1
tp605
F0.0
s((I360
I80
I6
tp606
I0
tp607
F0.8331272997965897
s((I-20
I100
I-4
tp608
I0
tp609
F-2.4
s((I-40
I40
I7
tp610
I1
tp611
F0.0
s((I40
I0
I0
tp612
I0
tp613
F0.7901925988726359
s((I220
I-80
I-5
tp614
I0
tp615
F0.8310780118255467
s((I420
I-80
I-9
tp616
I0
tp617
F0.9831892548436043
s((I160
I-40
I-7
tp618
I0
tp619
F0.8321908320137834
s((I20
I-60
I-6
tp620
I0
tp621
F-3.3526041666666666
s((I60
I20
I4
tp622
I0
tp623
F0.6704634881107774
s((I40
I-60
I-6
tp624
I0
tp625
F-5.083339768771799
s((I300
I20
I-4
tp626
I0
tp627
F0.8333008699878541
s((I40
I-60
I3
tp628
I1
tp629
F0.0
s((I120
I-80
I1
tp630
I0
tp631
F0.8112828530640825
s((I380
I-20
I0
tp632
I0
tp633
F0.8242295808040063
s((I160
I-140
I8
tp634
I0
tp635
F0.47458528813865564
s((I40
I-40
I-3
tp636
I0
tp637
F0.22314973515867437
s((I80
I140
I6
tp638
I0
tp639
F0.6795848973638592
s((I100
I140
I2
tp640
I1
tp641
F0.0
s((I180
I20
I4
tp642
I1
tp643
F0.0
s((I160
I-80
I-6
tp644
I1
tp645
F0.0
s((I40
I-20
I-7
tp646
I0
tp647
F-2.9498372913110695
s((I20
I40
I10
tp648
I0
tp649
F-1.8795833333333336
s((I220
I-100
I10
tp650
I0
tp651
F-2.951041666666667
s(g164
I0
tp652
F0.7725813392258443
s((I100
I40
I0
tp653
I0
tp654
F0.39046583333333335
s((I80
I40
I-2
tp655
I1
tp656
F0.0
s((I300
I160
I-6
tp657
I0
tp658
F0.0
s((I-40
I80
I-3
tp659
I0
tp660
F0.5968520105135366
s((I160
I-40
I-6
tp661
I1
tp662
F0.0
s((I40
I100
I10
tp663
I0
tp664
F0.5610836053520941
s((I-20
I20
I6
tp665
I0
tp666
F-2.4
s((I20
I20
I4
tp667
I1
tp668
F0.0
s((I200
I-80
I0
tp669
I1
tp670
F0.0
s((I200
I-20
I3
tp671
I1
tp672
F0.0
s((I140
I-80
I-6
tp673
I1
tp674
F0.0
s((I280
I140
I4
tp675
I0
tp676
F0.7205184010434985
s((I80
I-100
I10
tp677
I1
tp678
F0.0
s((I80
I60
I-2
tp679
I0
tp680
F0.39046583333333335
s((I80
I-60
I-7
tp681
I1
tp682
F0.0
s((I140
I80
I10
tp683
I0
tp684
F0.47444321614583335
s((I0
I20
I4
tp685
I1
tp686
F0.0
s((I0
I60
I0
tp687
I0
tp688
F-1.1846587901106493
s((I40
I-20
I-6
tp689
I1
tp690
F0.0
s((I240
I-40
I-9
tp691
I0
tp692
F0.8332822053711402
s((I100
I140
I4
tp693
I1
tp694
F0.0
s((I120
I0
I1
tp695
I1
tp696
F0.0
s((I240
I-180
I10
tp697
I1
tp698
F0.0
s((I260
I120
I6
tp699
I1
tp700
F0.0
s((I40
I-40
I5
tp701
I0
tp702
F0.35740143229166665
s((I320
I80
I1
tp703
I1
tp704
F0.0
s((I140
I-40
I-1
tp705
I0
tp706
F0.821939874325337
s(g638
I1
tp707
F0.0
s((I120
I-60
I-7
tp708
I1
tp709
F0.0
s((I280
I-80
I3
tp710
I1
tp711
F0.0
s((I160
I-60
I-9
tp712
I1
tp713
F0.0
s((I260
I220
I-9
tp714
I1
tp715
F0.39046583333333335
s((I160
I0
I-6
tp716
I1
tp717
F0.0
s((I360
I40
I5
tp718
I0
tp719
F0.8332817555555615
s((I220
I260
I3
tp720
I0
tp721
F0.39046583333333335
s((I0
I60
I4
tp722
I1
tp723
F0.0
s((I100
I120
I0
tp724
I0
tp725
F0.6694342726061687
s((I240
I0
I-8
tp726
I0
tp727
F0.8333218402418507
s((I100
I140
I1
tp728
I1
tp729
F0.0
s((I80
I160
I3
tp730
I0
tp731
F0.39046583333333335
s((I100
I-60
I10
tp732
I1
tp733
F0.0
s((I20
I0
I10
tp734
I0
tp735
F-2.4
s((I240
I-40
I-8
tp736
I1
tp737
F0.0
s((I0
I80
I-7
tp738
I1
tp739
F-5.57995237127528
s((I80
I20
I2
tp740
I0
tp741
F0.7082786556784242
s((I180
I-100
I10
tp742
I0
tp743
F0.8127549125030344
s((I120
I20
I1
tp744
I1
tp745
F0.0
s((I100
I20
I-5
tp746
I0
tp747
F-2.4
s((I80
I100
I-1
tp748
I1
tp749
F0.0
s((I40
I-20
I-5
tp750
I0
tp751
F0.7305229926207193
s((I100
I160
I4
tp752
I0
tp753
F0.530422953953804
s((I280
I-80
I4
tp754
I0
tp755
F0.7675450612732464
s((I80
I-20
I10
tp756
I1
tp757
F0.0
s((I60
I60
I3
tp758
I0
tp759
F0.39046583333333335
s((I80
I-180
I10
tp760
I1
tp761
F0.0
s((I180
I0
I1
tp762
I0
tp763
F0.7605535533400309
s((I100
I80
I0
tp764
I0
tp765
F0.5668220124409515
s((I80
I-120
I10
tp766
I0
tp767
F0.6446736926101206
s((I220
I260
I4
tp768
I1
tp769
F0.0
s((I80
I140
I9
tp770
I1
tp771
F0.0
s((I20
I20
I10
tp772
I1
tp773
F0.0
s((I140
I-40
I-8
tp774
I0
tp775
F0.8290442813931571
s(g284
I0
tp776
F0.48036740986902204
s((I100
I60
I2
tp777
I1
tp778
F0.0
s((I100
I160
I-4
tp779
I0
tp780
F0.39046583333333335
s((I140
I0
I-6
tp781
I0
tp782
F0.7530243113974602
s((I320
I120
I-8
tp783
I1
tp784
F0.0
s((I200
I20
I-2
tp785
I1
tp786
F0.0
s((I80
I-40
I-9
tp787
I0
tp788
F0.7995905446404603
s((I200
I20
I3
tp789
I1
tp790
F0.0
s((I60
I40
I8
tp791
I0
tp792
F0.7614593916617818
s((I60
I-20
I-2
tp793
I0
tp794
F0.7930267606283132
s((I140
I-40
I10
tp795
I0
tp796
F0.4285377083333334
s((I100
I60
I-7
tp797
I0
tp798
F-2.4
s((I300
I40
I8
tp799
I0
tp800
F0.7953143394884339
s((I140
I-40
I-4
tp801
I1
tp802
F0.0
s((I40
I220
I-8
tp803
I0
tp804
F0.39046583333333335
s((I180
I0
I2
tp805
I1
tp806
F0.0
s((I100
I-20
I4
tp807
I1
tp808
F0.0
s((I280
I-20
I3
tp809
I0
tp810
F0.8332314534592099
s((I160
I0
I-7
tp811
I1
tp812
F0.0
s((I200
I-100
I-1
tp813
I0
tp814
F0.5355008529325
s((I200
I200
I9
tp815
I0
tp816
F0.5142927022916667
s((I100
I-40
I4
tp817
I0
tp818
F0.7098680990630587
s((I340
I-20
I8
tp819
I1
tp820
F0.0
s((I80
I0
I1
tp821
I1
tp822
F0.0
s((I240
I-100
I-9
tp823
I0
tp824
F0.8319415303255685
s((I140
I-20
I-7
tp825
I0
tp826
F0.8280524844543299
s((I220
I-20
I-6
tp827
I1
tp828
F0.0
s((I240
I240
I-3
tp829
I0
tp830
F0.5158053658333334
s((I100
I20
I4
tp831
I0
tp832
F0.6364063627841823
s((I320
I-20
I-9
tp833
I0
tp834
F0.8333190227372653
s((I0
I40
I-1
tp835
I1
tp836
F-1.0034122232595761
s((I80
I-40
I10
tp837
I0
tp838
F-1.6928660763468422
s((I80
I220
I9
tp839
I1
tp840
F0.0
s((I140
I260
I-4
tp841
I0
tp842
F0.39046583333333335
s((I-20
I40
I5
tp843
I1
tp844
F0.0
s((I20
I60
I-4
tp845
I1
tp846
F0.0
s((I240
I-160
I10
tp847
I0
tp848
F-2.9018709635416666
s((I20
I20
I-9
tp849
I1
tp850
F0.0
s((I160
I-140
I-8
tp851
I1
tp852
F0.0
s((I80
I-20
I9
tp853
I1
tp854
F0.0
s((I20
I20
I6
tp855
I0
tp856
F-1.9208333333333334
s((I20
I-80
I9
tp857
I0
tp858
F-2.4
s((I20
I-120
I5
tp859
I1
tp860
F0.0
s((I120
I-120
I3
tp861
I0
tp862
F0.5134120975270751
s((I80
I-20
I-9
tp863
I1
tp864
F0.0
s((I80
I-80
I-8
tp865
I1
tp866
F0.0
s((I80
I0
I2
tp867
I0
tp868
F0.39046583333333335
s((I140
I-20
I-6
tp869
I1
tp870
F0.0
s((I180
I-40
I5
tp871
I1
tp872
F0.0
s((I240
I-60
I10
tp873
I0
tp874
F-1.7634665755208332
s((I80
I0
I-2
tp875
I1
tp876
F0.0
s((I360
I40
I0
tp877
I0
tp878
F0.8329105271018586
s((I140
I-120
I-4
tp879
I1
tp880
F0.0
s((I180
I-120
I8
tp881
I1
tp882
F0.0
s((I80
I60
I4
tp883
I0
tp884
F0.6921016123656074
s((I100
I40
I3
tp885
I0
tp886
F0.7842645332764699
s((I60
I-60
I-4
tp887
I0
tp888
F0.39046583333333335
s((I260
I-40
I7
tp889
I0
tp890
F0.8332443813743873
s((I40
I40
I8
tp891
I1
tp892
F0.0
s((I100
I120
I-7
tp893
I0
tp894
F-2.7104293999999998
s((I340
I100
I-7
tp895
I1
tp896
F0.7093533039209009
s((I100
I-20
I0
tp897
I0
tp898
F0.4085619723791667
s((I80
I20
I3
tp899
I0
tp900
F0.6650819246002293
s((I420
I0
I-8
tp901
I0
tp902
F0.8950252961661311
s((I20
I-80
I10
tp903
I1
tp904
F-5.276558971310104
s((I20
I-120
I6
tp905
I0
tp906
F-1.9583333333333333
s((I220
I-40
I-8
tp907
I1
tp908
F0.0
s(g419
I1
tp909
F0.0
s((I100
I-20
I3
tp910
I1
tp911
F0.0
s((I400
I40
I-2
tp912
I1
tp913
F0.0
s((I260
I-80
I6
tp914
I0
tp915
F0.8308869754213501
s((I320
I-20
I-7
tp916
I0
tp917
F0.8332941493212278
s((I120
I-20
I-2
tp918
I1
tp919
F0.0
s((I180
I-40
I6
tp920
I0
tp921
F0.8329200093687139
s((I60
I-120
I-8
tp922
I1
tp923
F0.0
s((I80
I100
I4
tp924
I0
tp925
F0.811488133338403
s((I120
I-60
I1
tp926
I1
tp927
F0.0
s((I400
I60
I-4
tp928
I1
tp929
F0.0
s((I220
I-20
I-7
tp930
I1
tp931
F0.0
s((I140
I-80
I-4
tp932
I1
tp933
F0.0
s((I100
I100
I5
tp934
I0
tp935
F0.8170628320890301
s((I220
I-200
I10
tp936
I1
tp937
F0.0
s((I380
I60
I2
tp938
I0
tp939
F0.8333209816007543
s((I420
I60
I-7
tp940
I0
tp941
F0.8532026724783239
s((I0
I40
I-3
tp942
I1
tp943
F0.0
s((I100
I160
I-2
tp944
I1
tp945
F0.0
s((I340
I40
I9
tp946
I0
tp947
F0.8331584213443795
s((I40
I-80
I-4
tp948
I0
tp949
F0.39046583333333335
s((I-40
I100
I-1
tp950
I0
tp951
F0.6760048939810746
s((I80
I80
I2
tp952
I0
tp953
F0.6565938386717359
s((I320
I100
I-2
tp954
I1
tp955
F0.0
s((I20
I60
I-5
tp956
I1
tp957
F0.0
s(g214
I0
tp958
F0.8333197232513351
s((I180
I-20
I3
tp959
I1
tp960
F0.0
s((I40
I-40
I-8
tp961
I1
tp962
F-3.078493537717723
s((I140
I0
I-2
tp963
I0
tp964
F0.8221260796677965
s((I40
I0
I-4
tp965
I1
tp966
F0.7726905923924674
s((I40
I-120
I2
tp967
I1
tp968
F0.0
s((I-20
I60
I3
tp969
I1
tp970
F0.0
s((I80
I-60
I-6
tp971
I0
tp972
F0.63382527702499
s((I60
I-40
I-1
tp973
I1
tp974
F-0.10485110838842526
s((I280
I40
I2
tp975
I0
tp976
F0.8333060691008503
s(g6
I1
tp977
F0.0
s((I80
I-40
I5
tp978
I1
tp979
F0.0
s((I80
I100
I3
tp980
I0
tp981
F0.4695354834325
s((I40
I-80
I-8
tp982
I1
tp983
F-5.559738702439048
s((I100
I0
I-6
tp984
I1
tp985
F0.0
s((I380
I100
I3
tp986
I1
tp987
F0.0
s((I240
I0
I-7
tp988
I1
tp989
F0.0
s((I40
I-60
I4
tp990
I1
tp991
F0.0
s((I60
I-20
I3
tp992
I0
tp993
F0.2077304166666666
s((I280
I0
I1
tp994
I0
tp995
F0.8333047080176115
s((I60
I0
I4
tp996
I0
tp997
F0.5304202182898334
s((I100
I80
I3
tp998
I0
tp999
F0.8087188566173167
s((I100
I-20
I6
tp1000
I0
tp1001
F0.8267311259651695
s((I60
I100
I8
tp1002
I1
tp1003
F0.0
s((I180
I-20
I4
tp1004
I0
tp1005
F0.7807830039910262
s((I360
I-40
I4
tp1006
I1
tp1007
F0.0
s((I80
I40
I8
tp1008
I0
tp1009
F0.8164788103582363
s((I-20
I60
I4
tp1010
I0
tp1011
F0.5350940602835914
s((I400
I40
I-3
tp1012
I1
tp1013
F0.0
s((I40
I-20
I4
tp1014
I1
tp1015
F-1.8870833333333332
s((I120
I-40
I4
tp1016
I1
tp1017
F0.0
s((I-20
I80
I1
tp1018
I1
tp1019
F0.0
s((I420
I-40
I-9
tp1020
I1
tp1021
F0.0
s((I300
I-60
I-3
tp1022
I0
tp1023
F0.7273620101344587
s((I140
I-120
I-8
tp1024
I0
tp1025
F0.7040685381349449
s((I80
I120
I1
tp1026
I0
tp1027
F0.39046583333333335
s((I100
I0
I9
tp1028
I1
tp1029
F0.0
s((I360
I40
I-6
tp1030
I1
tp1031
F0.0
s((I220
I-20
I-1
tp1032
I0
tp1033
F0.8331502941142634
s((I80
I160
I-9
tp1034
I1
tp1035
F0.0
s((I100
I-60
I6
tp1036
I0
tp1037
F0.8059003225708781
s((I340
I-80
I9
tp1038
I0
tp1039
F0.8221518957305174
s((I100
I160
I-3
tp1040
I1
tp1041
F0.0
s((I360
I60
I7
tp1042
I0
tp1043
F0.8332082680846051
s((I280
I0
I2
tp1044
I1
tp1045
F0.0
s((I100
I160
I3
tp1046
I1
tp1047
F0.0
s((I-20
I60
I0
tp1048
I1
tp1049
F0.0
s((I100
I-20
I-1
tp1050
I1
tp1051
F0.0
s((I60
I-140
I-6
tp1052
I1
tp1053
F0.0
s((I240
I-40
I-7
tp1054
I0
tp1055
F0.833269472363779
s(g14
I0
tp1056
F0.8298430784902209
s((I120
I-80
I4
tp1057
I1
tp1058
F0.0
s((I240
I-120
I-8
tp1059
I0
tp1060
F0.8125069868769093
s(g16
I1
tp1061
F0.0
s(g18
I1
tp1062
F0.0
s((I100
I60
I6
tp1063
I1
tp1064
F0.0
s(g22
I0
tp1065
F0.8080769524636209
s((I-20
I60
I-4
tp1066
I0
tp1067
F0.8130495493520445
s(g26
I0
tp1068
F0.5717295243267771
s((I260
I-40
I10
tp1069
I1
tp1070
F0.0
s((I20
I40
I-6
tp1071
I1
tp1072
F0.0
s((I300
I120
I-1
tp1073
I1
tp1074
F0.0
s(g40
I1
tp1075
F-4.931610475282144
s((I60
I-40
I0
tp1076
I1
tp1077
F0.0
s(g44
I0
tp1078
F0.7006088738216387
s(g46
I0
tp1079
F0.7759394332535334
s((I360
I-20
I7
tp1080
I0
tp1081
F0.8329504226503112
s(g54
I0
tp1082
F0.0
s((I40
I0
I-9
tp1083
I0
tp1084
F0.7077727908017997
s(g56
I0
tp1085
F0.4456244661458333
s((I120
I-60
I4
tp1086
I1
tp1087
F0.0
s(g58
I0
tp1088
F0.4672408507946944
s(g62
I0
tp1089
F0.4893675436578102
s(g126
I1
tp1090
F0.0
s((I260
I-60
I9
tp1091
I0
tp1092
F0.8332512572468241
s((I80
I140
I8
tp1093
I0
tp1094
F0.6396750122975625
s((I200
I40
I0
tp1095
I1
tp1096
F0.0
s((I320
I80
I3
tp1097
I1
tp1098
F0.0
s(g70
I1
tp1099
F0.0
s((I160
I-100
I-8
tp1100
I1
tp1101
F0.0
s(g78
I1
tp1102
F0.0
s((I120
I-20
I-3
tp1103
I0
tp1104
F0.8175371658157181
s((I260
I240
I-5
tp1105
I0
tp1106
F0.49202443472
s(g88
I0
tp1107
F0.733419421206466
s((I40
I-40
I9
tp1108
I0
tp1109
F-3.290423465553163
s((I160
I-160
I10
tp1110
I0
tp1111
F-1.8428333333333335
s((I60
I60
I7
tp1112
I0
tp1113
F0.5024201970666667
s(g356
I1
tp1114
F-4.65
s((I200
I-20
I2
tp1115
I1
tp1116
F0.0
s((I280
I-20
I0
tp1117
I1
tp1118
F0.0
s(g102
I0
tp1119
F0.7977827517582673
s((I240
I260
I-5
tp1120
I0
tp1121
F0.39046583333333335
s((I260
I-80
I1
tp1122
I0
tp1123
F0.832166676582655
s(g1069
I0
tp1124
F0.8328112810610565
s((I260
I-60
I10
tp1125
I1
tp1126
F0.0
s(g110
I1
tp1127
F0.0
s((I100
I-60
I2
tp1128
I1
tp1129
F0.0
s(g124
I0
tp1130
F0.8332675904061098
s((I-20
I80
I-2
tp1131
I1
tp1132
F0.0
s((I160
I-120
I8
tp1133
I1
tp1134
F0.0
s((I100
I-80
I5
tp1135
I1
tp1136
F0.0
s((I60
I40
I9
tp1137
I1
tp1138
F0.0
s(g134
I1
tp1139
F0.0
s((I80
I20
I4
tp1140
I1
tp1141
F0.0
s(g138
I0
tp1142
F-1.9583333333333333
s((I120
I260
I-1
tp1143
I0
tp1144
F0.39046583333333335
s(g208
I0
tp1145
F0.3914258333333333
s(g144
I1
tp1146
F0.0
s((I300
I0
I-2
tp1147
I1
tp1148
F0.0
s(g543
I0
tp1149
F0.5636812271790398
s((I160
I-20
I-8
tp1150
I1
tp1151
F0.0
s(g152
I0
tp1152
F0.8265592208099337
s((I-20
I40
I-9
tp1153
I0
tp1154
F-1.9320647746233623
s((I340
I0
I9
tp1155
I0
tp1156
F0.8332443101555589
s((I100
I180
I3
tp1157
I0
tp1158
F0.39046583333333335
s(g228
I0
tp1159
F0.31868971653645833
s((I60
I20
I-3
tp1160
I1
tp1161
F0.0
s((I60
I140
I9
tp1162
I0
tp1163
F0.6990705089109928
s((I80
I20
I-8
tp1164
I0
tp1165
F0.39046583333333335
s((I400
I-20
I-3
tp1166
I0
tp1167
F0.8155814077074497
s((I240
I-40
I10
tp1168
I0
tp1169
F-2.8953533913937717
s(g188
I1
tp1170
F0.0
s((I100
I160
I-1
tp1171
I1
tp1172
F0.0
s((I320
I100
I-9
tp1173
I0
tp1174
F0.0
s(g190
I1
tp1175
F0.0
s((I20
I20
I2
tp1176
I1
tp1177
F0.753397177596224
s((I100
I120
I-5
tp1178
I1
tp1179
F-1.8567083333333336
s(g194
I1
tp1180
F0.0
s(g196
I1
tp1181
F0.0
s((I300
I100
I1
tp1182
I1
tp1183
F0.0
s((I340
I0
I10
tp1184
I1
tp1185
F0.0
s(g204
I1
tp1186
F0.8056673207308171
s((I40
I40
I5
tp1187
I0
tp1188
F-1.8870833333333332
s(g210
I0
tp1189
F0.5367656740464272
s((I280
I40
I-1
tp1190
I1
tp1191
F0.0
s((I60
I20
I-2
tp1192
I0
tp1193
F0.4040328960480995
s((I160
I0
I8
tp1194
I1
tp1195
F0.0
s(g220
I1
tp1196
F0.0
s((I180
I20
I2
tp1197
I1
tp1198
F0.0
s(g224
I0
tp1199
F0.4811200280843099
s(g280
I0
tp1200
F-2.5758807085114546
s((I60
I-100
I-4
tp1201
I0
tp1202
F-0.5590340660215878
s(g843
I0
tp1203
F-1.728556550712406
s(g230
I1
tp1204
F0.0
s((I80
I0
I-5
tp1205
I0
tp1206
F0.8097327264560675
s(g232
I1
tp1207
F0.0
s((I100
I140
I6
tp1208
I1
tp1209
F0.0
s(g236
I1
tp1210
F0.3973058333333333
s(g290
I1
tp1211
F-5.7020106057693125
s(g238
I1
tp1212
F0.0
s(g242
I1
tp1213
F0.0
s((I20
I40
I-8
tp1214
I1
tp1215
F0.0
s(g306
I1
tp1216
F0.0
s(g248
I1
tp1217
F0.0
s((I380
I60
I-1
tp1218
I1
tp1219
F0.0
s(g252
I0
tp1220
F0.8017513674418952
s(g316
I0
tp1221
F0.7979575979294691
s(g256
I0
tp1222
F0.5605230374056789
s((I280
I0
I0
tp1223
I0
tp1224
F0.8333160337815508
s((I320
I0
I-8
tp1225
I1
tp1226
F0.0
s(g260
I1
tp1227
F0.0
s((I0
I40
I-7
tp1228
I0
tp1229
F0.8039498413578288
s((I280
I140
I0
tp1230
I1
tp1231
F0.0
s((I80
I80
I10
tp1232
I0
tp1233
F0.7964804258795766
s(g272
I0
tp1234
F0.8333177528457676
s((I240
I-40
I-6
tp1235
I1
tp1236
F0.0
s((I60
I20
I-1
tp1237
I0
tp1238
F0.4157672884325424
s((I60
I60
I5
tp1239
I0
tp1240
F0.4125329092019268
s((I80
I-60
I-9
tp1241
I1
tp1242
F0.0
s(g276
I1
tp1243
F0.0
s(g348
I1
tp1244
F0.0
s(g358
I1
tp1245
F0.0
s((I140
I20
I-1
tp1246
I0
tp1247
F0.5883153314606056
s((I0
I80
I0
tp1248
I1
tp1249
F-1.9583333333333333
s(g286
I1
tp1250
F-0.3407929513762541
s(g383
I0
tp1251
F0.48904591148577503
s(g1197
I0
tp1252
F0.6502000892814712
s((I40
I-120
I-1
tp1253
I1
tp1254
F0.0
s(g294
I0
tp1255
F0.702833717875923
s(g298
I0
tp1256
F-3.1791666666666663
s((I40
I-20
I10
tp1257
I1
tp1258
F0.7931971136184488
s(g302
I0
tp1259
F0.7737497608763745
s((I80
I40
I7
tp1260
I0
tp1261
F0.7931408266906721
s((I260
I20
I5
tp1262
I0
tp1263
F0.8333150899505165
s((I340
I20
I6
tp1264
I1
tp1265
F0.0
s(g310
I1
tp1266
F-6.035087317024962
s((I100
I80
I1
tp1267
I1
tp1268
F0.0
s((I20
I20
I-6
tp1269
I1
tp1270
F0.0
s((I80
I20
I-7
tp1271
I1
tp1272
F0.0
s(g324
I0
tp1273
F0.39046583333333335
s((I60
I-20
I0
tp1274
I1
tp1275
F0.0
s(g328
I1
tp1276
F0.0
s(g330
I1
tp1277
F0.0
s((I100
I-80
I4
tp1278
I0
tp1279
F0.7880837292360774
s((I-20
I60
I5
tp1280
I1
tp1281
F0.0
s(g336
I0
tp1282
F0.8332477074421367
s(g338
I0
tp1283
F0.156268314095941
s(g344
I0
tp1284
F0.8310548116257319
s((I240
I-20
I-9
tp1285
I0
tp1286
F0.8333237692233142
s(g405
I1
tp1287
F0.0
s(g350
I1
tp1288
F0.0
s((I20
I40
I1
tp1289
I1
tp1290
F0.0
s(g415
I0
tp1291
F-1.9583333333333333
s((I80
I80
I4
tp1292
I1
tp1293
F0.0
s(g421
I0
tp1294
F0.8332359326584211
s(g180
I1
tp1295
F0.0
s(g364
I0
tp1296
F0.8377996436752684
s((I400
I0
I-7
tp1297
I0
tp1298
F0.822648561793607
s(g370
I0
tp1299
F-3.1791666666666663
s((I80
I-20
I4
tp1300
I1
tp1301
F0.0
s(g374
I0
tp1302
F0.8333244647672513
s((I60
I-20
I-5
tp1303
I0
tp1304
F0.8051489318016403
s(g376
I0
tp1305
F0.5167176486111296
s((I-20
I40
I0
tp1306
I1
tp1307
F0.0
s((I-40
I20
I6
tp1308
I1
tp1309
F0.0
s((I40
I40
I1
tp1310
I0
tp1311
F0.39046583333333335
s(g381
I0
tp1312
F0.7753239791072544
s((I340
I-20
I10
tp1313
I1
tp1314
F0.0
s((I80
I60
I2
tp1315
I1
tp1316
F0.0
s(g385
I1
tp1317
F0.0
s((I80
I-60
I10
tp1318
I1
tp1319
F0.7665128285673334
s((I100
I60
I-9
tp1320
I0
tp1321
F-2.4
s((I380
I100
I2
tp1322
I1
tp1323
F0.0
s((I0
I20
I1
tp1324
I0
tp1325
F-1.6935524546097411
s(g391
I0
tp1326
F-0.25984538531873425
s(g451
I1
tp1327
F0.0
s((I200
I-100
I-2
tp1328
I0
tp1329
F0.5604906662658333
s(g393
I1
tp1330
F0.0
s((I100
I120
I6
tp1331
I1
tp1332
F0.0
s(g395
I1
tp1333
F0.0
s(g397
I0
tp1334
F0.8313839202299604
s((I160
I-140
I-9
tp1335
I1
tp1336
F0.0
s(g401
I0
tp1337
F0.39046583333333335
s(g403
I0
tp1338
F0.39046583333333335
s((I220
I-40
I-2
tp1339
I1
tp1340
F0.0
s(g409
I1
tp1341
F0.0
s((I-40
I60
I3
tp1342
I0
tp1343
F0.7607515823803488
s((I400
I100
I-4
tp1344
I1
tp1345
F0.0
s(g413
I0
tp1346
F0.39046583333333335
s((I220
I-60
I-4
tp1347
I1
tp1348
F0.0
s(g693
I0
tp1349
F0.6819707278216303
s(g479
I0
tp1350
F0.6155470793044839
s((I100
I0
I10
tp1351
I0
tp1352
F-2.4
s((I240
I-120
I9
tp1353
I0
tp1354
F-1.853708333333333
s(g425
I0
tp1355
F0.8255503424165291
s((I200
I-80
I-1
tp1356
I0
tp1357
F0.8198032019382047
s(g427
I1
tp1358
F0.0
s((I320
I20
I-7
tp1359
I0
tp1360
F0.833243979677156
s(g429
I1
tp1361
F0.0
s(g1030
I0
tp1362
F0.7855628312270413
s((I220
I-80
I-1
tp1363
I1
tp1364
F0.0
s(g433
I1
tp1365
F0.0
s((I420
I20
I-8
tp1366
I1
tp1367
F0.0
s(g437
I0
tp1368
F0.8332276667292933
s((I140
I-60
I-2
tp1369
I1
tp1370
F0.0
s(g439
I0
tp1371
F-2.9116901041666665
s((I120
I-60
I-8
tp1372
I1
tp1373
F0.0
s((I340
I-100
I10
tp1374
I1
tp1375
F0.0
s(g441
I1
tp1376
F0.0
s((I60
I-40
I6
tp1377
I0
tp1378
F0.3864125
s(g509
I1
tp1379
F0.0
s((I100
I120
I1
tp1380
I0
tp1381
F0.8041399633793223
s((I40
I-60
I-8
tp1382
I0
tp1383
F-5.380703170751501
s(g455
I1
tp1384
F0.31591351750914787
s(g1363
I0
tp1385
F0.8151316984046435
s((I240
I-120
I10
tp1386
I1
tp1387
F0.8224916884885725
s((I100
I80
I9
tp1388
I0
tp1389
F-1.8795833333333336
s(g467
I1
tp1390
F0.0
s((I-40
I100
I-2
tp1391
I1
tp1392
F-5.198333333333332
s(g469
I0
tp1393
F0.8770402744237771
s((I320
I20
I-6
tp1394
I1
tp1395
F0.0
s(g477
I0
tp1396
F0.49042508666666673
s((I80
I120
I-2
tp1397
I0
tp1398
F0.39046583333333335
s((I80
I-20
I-3
tp1399
I1
tp1400
F0.0
s(g483
I0
tp1401
F0.7456449077863814
s((I260
I-40
I8
tp1402
I0
tp1403
F0.8332911568696536
s((I-40
I80
I-5
tp1404
I0
tp1405
F-1.7374376238757923
s((I420
I-60
I-7
tp1406
I0
tp1407
F0.0
s((I160
I-40
I6
tp1408
I0
tp1409
F0.43279777333333336
s((I140
I-40
I-7
tp1410
I0
tp1411
F0.8297236367487928
s(g493
I0
tp1412
F0.8332889288720877
s((I340
I80
I-3
tp1413
I0
tp1414
F0.7082799273582168
s(g559
I0
tp1415
F0.47262261441391257
s((I-40
I80
I-1
tp1416
I0
tp1417
F0.7121757781726343
s((I80
I-100
I8
tp1418
I1
tp1419
F0.0
s((I20
I240
I-2
tp1420
I1
tp1421
F0.0
s((I200
I-80
I-3
tp1422
I0
tp1423
F0.7150732002976034
s((I20
I40
I-1
tp1424
I0
tp1425
F-0.26250714715385093
s((I40
I-40
I-6
tp1426
I0
tp1427
F-1.8870833333333332
s(g513
I1
tp1428
F0.0
s((I40
I-20
I-8
tp1429
I1
tp1430
F-3.483545871543484
s((I80
I-20
I-1
tp1431
I0
tp1432
F0.42772981353464273
s((I40
I-40
I0
tp1433
I1
tp1434
F0.6171546295664089
s((I420
I-20
I-7
tp1435
I0
tp1436
F0.8524801961581774
s(g521
I0
tp1437
F0.758650743488794
s((I360
I40
I8
tp1438
I1
tp1439
F0.0
s(g525
I1
tp1440
F0.0
s((I40
I-40
I3
tp1441
I0
tp1442
F-0.6923435567535645
s((I300
I180
I-9
tp1443
I0
tp1444
F0.0
s((I360
I-20
I8
tp1445
I1
tp1446
F0.0
s((I40
I-60
I6
tp1447
I1
tp1448
F0.0
s((I60
I0
I1
tp1449
I0
tp1450
F0.6886757028863861
s((I120
I-80
I2
tp1451
I1
tp1452
F0.0
s((I100
I100
I-3
tp1453
I0
tp1454
F0.4591397264356093
s(g533
I0
tp1455
F-5.887023397680261
s(g537
I0
tp1456
F0.8324336631293899
s((I100
I160
I5
tp1457
I0
tp1458
F0.5067430698079439
s(g539
I1
tp1459
F0.0
s((I60
I-20
I7
tp1460
I0
tp1461
F0.44225780766666667
s(g1280
I0
tp1462
F-0.5082683564942146
s((I40
I40
I4
tp1463
I1
tp1464
F0.0
s((I200
I-80
I-2
tp1465
I1
tp1466
F0.0
s(g547
I0
tp1467
F0.8328508399105468
s((I220
I-180
I10
tp1468
I1
tp1469
F0.0
s(g622
I1
tp1470
F0.0
s(g549
I1
tp1471
F-3.5999999999999996
s((I80
I220
I8
tp1472
I1
tp1473
F0.0
s((I40
I120
I10
tp1474
I1
tp1475
F0.0
s(g557
I1
tp1476
F0.0
s(g1416
I1
tp1477
F0.0
s((I40
I-40
I4
tp1478
I1
tp1479
F-2.5375168904586056
s(g563
I0
tp1480
F0.7751042306174327
s((I120
I-120
I2
tp1481
I1
tp1482
F0.0
s(g565
I0
tp1483
F-2.4
s((I400
I80
I-3
tp1484
I0
tp1485
F0.8332984453198313
s((I60
I0
I2
tp1486
I1
tp1487
F0.0
s((I80
I-20
I8
tp1488
I1
tp1489
F0.0
s((I360
I40
I4
tp1490
I1
tp1491
F0.0
s((I20
I-60
I10
tp1492
I1
tp1493
F0.0
s((I180
I0
I7
tp1494
I1
tp1495
F0.0
s(g582
I1
tp1496
F0.0
s((I200
I-100
I0
tp1497
I1
tp1498
F0.0
s((I100
I-80
I6
tp1499
I0
tp1500
F0.7676345028387712
s((I60
I100
I7
tp1501
I0
tp1502
F0.4311603469565736
s(g584
I0
tp1503
F0.4752897762306447
s((I100
I-40
I9
tp1504
I0
tp1505
F-1.6079358768315541
s(g590
I1
tp1506
F0.0
s((I40
I0
I8
tp1507
I0
tp1508
F0.6831252610612043
s((I40
I40
I-1
tp1509
I0
tp1510
F0.5318695373623781
s(g596
I0
tp1511
F0.8270576879836007
s(g665
I1
tp1512
F0.0
s(g12
I0
tp1513
F0.6684609015704608
s(g600
I0
tp1514
F-1.8657136197916664
s((I260
I-60
I7
tp1515
I1
tp1516
F0.0
s(g604
I0
tp1517
F0.8333243881953567
s((I100
I240
I5
tp1518
I0
tp1519
F0.0
s((I-20
I60
I-9
tp1520
I0
tp1521
F-5.072829673297456
s((I60
I0
I-4
tp1522
I1
tp1523
F0.0
s(g614
I1
tp1524
F0.0
s(g616
I1
tp1525
F0.0
s(g681
I0
tp1526
F0.7856867244042693
s(g618
I1
tp1527
F0.0
s((I380
I-40
I3
tp1528
I1
tp1529
F0.0
s(g630
I1
tp1530
F0.0
s(g748
I0
tp1531
F0.5408696733113334
s((I100
I80
I-4
tp1532
I0
tp1533
F0.44148431935437016
s((I60
I40
I-4
tp1534
I1
tp1535
F0.0
s(g640
I0
tp1536
F0.7981201203427191
s((I140
I-40
I-2
tp1537
I1
tp1538
F0.0
s(g1110
I1
tp1539
F0.0
s((I-20
I80
I-4
tp1540
I1
tp1541
F-6.500886244295037
s(g642
I0
tp1542
F0.8331887190964442
s((I200
I-80
I3
tp1543
I0
tp1544
F0.8276485482153462
s((I40
I100
I-8
tp1545
I0
tp1546
F-1.8870833333333332
s((I40
I-20
I2
tp1547
I1
tp1548
F0.6387383901584001
s(g646
I1
tp1549
F0.7287095967177819
s(g813
I1
tp1550
F0.0
s((I220
I-80
I-2
tp1551
I1
tp1552
F0.0
s((I360
I80
I7
tp1553
I0
tp1554
F0.8330015997585531
s(g659
I1
tp1555
F-4.658333333333333
s(g661
I0
tp1556
F0.8319438574491912
s(g673
I0
tp1557
F0.8245634606380945
s((I320
I-60
I-9
tp1558
I1
tp1559
F0.0
s(g667
I0
tp1560
F-2.4
s((I380
I-20
I1
tp1561
I0
tp1562
F0.8252104051392064
s((I340
I-40
I10
tp1563
I1
tp1564
F0.0
s(g677
I0
tp1565
F0.4361044682865235
s((I40
I-20
I1
tp1566
I0
tp1567
F-2.3736149952582717
s((I100
I60
I-4
tp1568
I1
tp1569
F0.0
s(g685
I0
tp1570
F-1.9583333333333333
s(g689
I0
tp1571
F0.6806468409595885
s((I220
I0
I-7
tp1572
I0
tp1573
F0.833280796336062
s(g691
I1
tp1574
F0.0
s((I360
I80
I5
tp1575
I1
tp1576
F0.0
s((I80
I80
I3
tp1577
I1
tp1578
F0.0
s(g699
I0
tp1579
F0.7349542827688819
s(g1246
I1
tp1580
F0.0
s(g701
I1
tp1581
F-4.534950392083478
s((I380
I-40
I2
tp1582
I0
tp1583
F0.8183410862542808
s((I60
I0
I-6
tp1584
I1
tp1585
F0.0
s((I100
I20
I1
tp1586
I0
tp1587
F0.7248724849121395
s((I300
I-40
I10
tp1588
I1
tp1589
F0.0
s(g716
I0
tp1590
F0.6728092842028255
s((I60
I-20
I-1
tp1591
I1
tp1592
F0.0
s((I240
I-80
I-8
tp1593
I0
tp1594
F0.8320290181317292
s((I200
I200
I10
tp1595
I1
tp1596
F0.0
s(g720
I1
tp1597
F0.0
s((I-40
I60
I-6
tp1598
I1
tp1599
F0.0
s((I400
I40
I-4
tp1600
I1
tp1601
F0.0
s(g722
I0
tp1602
F0.3241897523819188
s((I80
I-60
I7
tp1603
I0
tp1604
F0.608504985630637
s(g730
I1
tp1605
F0.0
s((I40
I0
I-6
tp1606
I1
tp1607
F0.0
s(g736
I0
tp1608
F0.8332790265629257
s((I240
I-120
I-9
tp1609
I0
tp1610
F0.8238329926466915
s((I20
I-20
I-3
tp1611
I0
tp1612
F-2.4
s((I60
I80
I7
tp1613
I1
tp1614
F0.0
s((I80
I60
I1
tp1615
I1
tp1616
F0.0
s(g746
I1
tp1617
F-3.095833333333333
s((I340
I-120
I10
tp1618
I1
tp1619
F0.0
s((I100
I120
I-8
tp1620
I1
tp1621
F0.0
s(g756
I0
tp1622
F0.8048679611542984
s(g762
I1
tp1623
F0.0
s(g768
I0
tp1624
F0.39046583333333335
s(g772
I0
tp1625
F-2.951041666666667
s(g1499
I1
tp1626
F0.0
s((I180
I-120
I5
tp1627
I0
tp1628
F0.5481346078125
s((I80
I160
I4
tp1629
I0
tp1630
F0.6065528708795161
s((I20
I-60
I-9
tp1631
I1
tp1632
F-5.205209442998802
s(g787
I1
tp1633
F0.0
s((I100
I20
I-9
tp1634
I0
tp1635
F-2.4
s((I100
I60
I-5
tp1636
I1
tp1637
F0.0
s((I40
I20
I-6
tp1638
I1
tp1639
F0.0
s((I100
I0
I-8
tp1640
I1
tp1641
F0.0
s((I160
I-80
I-9
tp1642
I0
tp1643
F0.8323065980731037
s((I120
I40
I5
tp1644
I0
tp1645
F0.5321909717157205
s((I180
I-80
I5
tp1646
I0
tp1647
F0.8269956179436213
s(g1164
I1
tp1648
F0.0
s((I220
I260
I0
tp1649
I1
tp1650
F0.0
s((I40
I-20
I-2
tp1651
I1
tp1652
F0.7321531743961596
s((I60
I200
I-9
tp1653
I0
tp1654
F0.39046583333333335
s(g801
I0
tp1655
F0.8306842728973725
s((I40
I-20
I9
tp1656
I1
tp1657
F0.0
s((I240
I-100
I7
tp1658
I1
tp1659
F0.0
s(g877
I1
tp1660
F0.0
s(g807
I0
tp1661
F0.8259271891808395
s((I280
I180
I-9
tp1662
I0
tp1663
F0.5975218899458333
s(g809
I1
tp1664
F0.0
s((I80
I160
I0
tp1665
I1
tp1666
F0.0
s(g815
I1
tp1667
F0.0
s((I320
I-20
I-6
tp1668
I1
tp1669
F0.0
s((I-20
I60
I6
tp1670
I1
tp1671
F-4.984719165510473
s(g819
I0
tp1672
F0.8332354915338797
s((I140
I0
I-5
tp1673
I0
tp1674
F0.721459603724784
s(g823
I1
tp1675
F0.0
s(g825
I1
tp1676
F0.0
s((I280
I20
I-1
tp1677
I0
tp1678
F0.8327242236682347
s(g827
I0
tp1679
F0.7752974284674037
s((I0
I80
I1
tp1680
I0
tp1681
F0.5703317883607478
s(g829
I1
tp1682
F0.0
s((I360
I-40
I8
tp1683
I1
tp1684
F0.0
s((I240
I-20
I9
tp1685
I0
tp1686
F0.8332834916326943
s((I100
I140
I-7
tp1687
I0
tp1688
F-2.4
s((I0
I40
I-2
tp1689
I0
tp1690
F0.655250194614964
s((I340
I40
I10
tp1691
I1
tp1692
F0.0
s((I180
I-80
I6
tp1693
I1
tp1694
F0.0
s((I160
I-20
I9
tp1695
I0
tp1696
F0.8325229060773052
s(g845
I0
tp1697
F0.6402008178636918
s((I60
I-20
I6
tp1698
I1
tp1699
F0.0
s((I300
I0
I-5
tp1700
I0
tp1701
F0.8332757665022241
s(g926
I0
tp1702
F0.8117772262767242
s(g851
I0
tp1703
F0.45462047547423523
s((I40
I20
I-1
tp1704
I0
tp1705
F-1.8293708333333334
s(g857
I1
tp1706
F0.0
s(g760
I0
tp1707
F-2.951041666666667
s(g366
I1
tp1708
F0.0
s((I100
I-40
I5
tp1709
I0
tp1710
F0.8203224040662622
s(g865
I0
tp1711
F0.820586990357813
s((I260
I-20
I8
tp1712
I1
tp1713
F0.0
s(g869
I0
tp1714
F0.8317556562282864
s(g950
I1
tp1715
F0.0
s((I100
I60
I-1
tp1716
I0
tp1717
F0.39046583333333335
s((I80
I60
I9
tp1718
I0
tp1719
F0.8089901180715247
s((I-20
I80
I0
tp1720
I0
tp1721
F0.7764380564730073
s((I180
I-60
I3
tp1722
I0
tp1723
F0.8293362519739479
s(g879
I0
tp1724
F0.6139067706205008
s((I-40
I60
I-4
tp1725
I0
tp1726
F0.7286952190773235
s((I20
I60
I-8
tp1727
I1
tp1728
F0.0
s(g881
I0
tp1729
F0.8091980278302328
s(g527
I0
tp1730
F0.46670046040261887
s(g885
I1
tp1731
F0.0
s(g168
I1
tp1732
F0.0
s((I380
I100
I1
tp1733
I1
tp1734
F0.0
s(g889
I1
tp1735
F0.0
s(g971
I1
tp1736
F0.0
s(g893
I1
tp1737
F0.0
s((I160
I120
I10
tp1738
I1
tp1739
F0.0
s((I100
I-140
I7
tp1740
I0
tp1741
F0.41065583380863047
s(g899
I1
tp1742
F0.0
s(g903
I0
tp1743
F-3.4310416666666668
s(g907
I0
tp1744
F0.771899577423025
s((I120
I20
I-6
tp1745
I1
tp1746
F0.0
s(g912
I0
tp1747
F0.8332986701740774
s((I20
I60
I-1
tp1748
I0
tp1749
F-0.415170594781558
s(g916
I1
tp1750
F0.0
s((I60
I40
I4
tp1751
I1
tp1752
F0.0
s(g922
I0
tp1753
F0.3488249147777557
s((I320
I-20
I10
tp1754
I1
tp1755
F0.8333171232702796
s((I100
I0
I3
tp1756
I1
tp1757
F0.0
s((I180
I-60
I4
tp1758
I1
tp1759
F0.0
s(g928
I0
tp1760
F0.8333199080230471
s((I80
I120
I2
tp1761
I1
tp1762
F0.0
s(g934
I1
tp1763
F0.0
s((I160
I220
I-5
tp1764
I0
tp1765
F0.0
s(g936
I0
tp1766
F-3.1791666666666663
s(g940
I1
tp1767
F0.0
s((I340
I-80
I10
tp1768
I1
tp1769
F0.0
s(g944
I0
tp1770
F0.39046583333333335
s((I-40
I60
I7
tp1771
I0
tp1772
F-1.828170833333333
s(g946
I1
tp1773
F0.0
s((I100
I120
I-3
tp1774
I1
tp1775
F0.0
s(g1745
I0
tp1776
F-1.9583333333333333
s((I80
I0
I7
tp1777
I0
tp1778
F0.7545295094330134
s((I120
I-100
I-1
tp1779
I1
tp1780
F0.0
s((I100
I260
I3
tp1781
I0
tp1782
F0.0
s((I200
I-20
I0
tp1783
I1
tp1784
F0.0
s(g961
I0
tp1785
F-1.8293708333333334
s((I80
I0
I5
tp1786
I0
tp1787
F0.590116137939932
s(g965
I0
tp1788
F-1.8293708333333334
s(g967
I0
tp1789
F-1.8567083333333336
s(g1034
I0
tp1790
F-2.4
s((I60
I-40
I-2
tp1791
I0
tp1792
F0.7829668081473884
s((I300
I80
I4
tp1793
I1
tp1794
F0.0
s(g980
I1
tp1795
F0.0
s(g982
I0
tp1796
F-2.059412902701648
s(g485
I0
tp1797
F0.39046583333333335
s(g984
I0
tp1798
F0.5293998242866667
s((I220
I-80
I-4
tp1799
I1
tp1800
F0.0
s((I260
I240
I-6
tp1801
I0
tp1802
F0.4460466923791667
s((I20
I-40
I4
tp1803
I1
tp1804
F0.0
s(g990
I0
tp1805
F-1.8870833333333332
s((I380
I20
I0
tp1806
I1
tp1807
F0.0
s(g994
I1
tp1808
F0.0
s(g998
I1
tp1809
F0.0
s(g1002
I0
tp1810
F0.7452799628953171
s((I140
I-60
I-9
tp1811
I0
tp1812
F0.39046583333333335
s(g1006
I0
tp1813
F0.8142126529462367
s((I80
I0
I6
tp1814
I1
tp1815
F0.0
s((I60
I0
I8
tp1816
I1
tp1817
F0.0
s((I140
I-80
I-7
tp1818
I0
tp1819
F0.7805086204950641
s((I60
I120
I9
tp1820
I0
tp1821
F0.5668490453988746
s((I40
I0
I3
tp1822
I1
tp1823
F0.7613043946915923
s((I40
I20
I-5
tp1824
I0
tp1825
F0.6121655962819845
s(g1014
I0
tp1826
F-1.8870833333333332
s((I400
I20
I-5
tp1827
I0
tp1828
F0.8338053703674355
s(g1016
I0
tp1829
F0.8160848946792625
s(g1022
I1
tp1830
F0.0
s((I220
I-40
I-3
tp1831
I1
tp1832
F0.0
s(g1026
I1
tp1833
F0.0
s((I20
I-60
I-1
tp1834
I1
tp1835
F0.0
s(g1038
I1
tp1836
F0.0
s(g1042
I1
tp1837
F0.0
s((I60
I60
I8
tp1838
I1
tp1839
F0.0
s((I80
I40
I6
tp1840
I1
tp1841
F0.0
s(g1044
I0
tp1842
F0.8332902080480373
s(g1097
I0
tp1843
F0.7209228320751546
s(g1048
I0
tp1844
F0.5626434522543864
s((I100
I240
I6
tp1845
I0
tp1846
F0.3914258333333333
s((I80
I40
I9
tp1847
I0
tp1848
F0.8174428078340539
s((I120
I-40
I0
tp1849
I1
tp1850
F0.0
s(g1057
I0
tp1851
F0.7931409663384597
s((I60
I120
I10
tp1852
I1
tp1853
F0.0
s((I340
I0
I8
tp1854
I1
tp1855
F0.0
s((I40
I40
I-7
tp1856
I0
tp1857
F0.761238842935571
s((I320
I100
I-6
tp1858
I1
tp1859
F0.0
s((I220
I-20
I-3
tp1860
I0
tp1861
F0.8332447976374108
s(g1239
I1
tp1862
F0.0
s((I340
I-60
I9
tp1863
I0
tp1864
F0.8251422866577129
s((I40
I40
I-2
tp1865
I1
tp1866
F0.0
s(g1073
I0
tp1867
F0.39046583333333335
s((I100
I0
I-4
tp1868
I0
tp1869
F0.5670911007124999
s((I380
I-20
I-8
tp1870
I0
tp1871
F0.7326471828607418
s(g1507
I1
tp1872
F0.0
s(g1076
I0
tp1873
F0.6737993538430922
s(g932
I0
tp1874
F0.8238573897263167
s((I100
I-60
I7
tp1875
I0
tp1876
F0.7964978932936335
s(g1080
I1
tp1877
F0.0
s((I20
I-140
I6
tp1878
I1
tp1879
F0.0
s((I40
I0
I-1
tp1880
I1
tp1881
F0.0
s(g1083
I1
tp1882
F0.0
s((I360
I40
I1
tp1883
I0
tp1884
F0.8330958758961255
s(g1086
I0
tp1885
F0.7966603546016138
s((I-20
I60
I7
tp1886
I0
tp1887
F-1.2556158467265748
s((I360
I20
I4
tp1888
I1
tp1889
F0.0
s((I80
I120
I-1
tp1890
I1
tp1891
F0.0
s(g1137
I0
tp1892
F0.8176533888201329
s(g1091
I1
tp1893
F0.0
s(g1143
I1
tp1894
F0.0
s(g1095
I0
tp1895
F0.6601465909043218
s((I120
I-20
I3
tp1896
I0
tp1897
F0.8240691406829159
s(g1100
I0
tp1898
F0.825293377530511
s((I400
I-20
I-2
tp1899
I1
tp1900
F0.0
s((I360
I60
I4
tp1901
I1
tp1902
F0.0
s(g1103
I1
tp1903
F0.0
s((I200
I0
I-1
tp1904
I1
tp1905
F0.0
s(g1105
I1
tp1906
F0.0
s(g553
I0
tp1907
F0.5057279560149661
s((I420
I80
I-7
tp1908
I0
tp1909
F0.8531519592135015
s((I420
I60
I-9
tp1910
I0
tp1911
F0.993958693024158
s((I280
I20
I1
tp1912
I0
tp1913
F0.8333261745085185
s(g1112
I1
tp1914
F0.0
s((I40
I0
I9
tp1915
I0
tp1916
F0.7405998221194237
s((I360
I40
I2
tp1917
I1
tp1918
F0.0
s(g1115
I0
tp1919
F0.8331328557561604
s((I380
I0
I-4
tp1920
I1
tp1921
F0.0
s(g1117
I0
tp1922
F0.8332102876393792
s(g1120
I1
tp1923
F0.0
s(g1122
I1
tp1924
F0.0
s((I360
I20
I1
tp1925
I0
tp1926
F0.8331017692342702
s((I60
I-40
I10
tp1927
I0
tp1928
F-0.5158769246603643
s((I60
I-120
I-5
tp1929
I0
tp1930
F0.4001584974311847
s((I80
I-80
I5
tp1931
I0
tp1932
F0.5861920383166378
s((I220
I240
I4
tp1933
I0
tp1934
F0.4886905083333334
s(g1131
I0
tp1935
F0.8167222657771249
s(g1178
I0
tp1936
F-2.2047670833333335
s(g1133
I0
tp1937
F0.8106049169661946
s((I380
I0
I1
tp1938
I0
tp1939
F0.8324372445881107
s((I100
I120
I-9
tp1940
I0
tp1941
F-1.9208333333333334
s((I100
I80
I8
tp1942
I1
tp1943
F0.0
s((I100
I140
I-9
tp1944
I0
tp1945
F-1.8870833333333332
s((I200
I-60
I2
tp1946
I0
tp1947
F0.8294205634409195
s((I280
I-20
I4
tp1948
I1
tp1949
F0.0
s(g1147
I0
tp1950
F0.8333083145657073
s((I40
I0
I10
tp1951
I1
tp1952
F0.7608162810143257
s(g1150
I0
tp1953
F0.6682110203264806
s(g648
I1
tp1954
F0.4780145451861732
s(g1153
I1
tp1955
F-0.6747773052531529
s((I360
I60
I-7
tp1956
I0
tp1957
F0.7558560910569909
s((I360
I20
I2
tp1958
I1
tp1959
F0.0
s((I0
I100
I-8
tp1960
I1
tp1961
F0.0
s(g1155
I1
tp1962
F0.0
s(g1157
I1
tp1963
F0.0
s(g1201
I1
tp1964
F-1.48135696390165
s((I80
I140
I7
tp1965
I1
tp1966
F0.0
s((I240
I80
I10
tp1967
I1
tp1968
F0.0
s(g1162
I1
tp1969
F0.0
s((I260
I-20
I6
tp1970
I1
tp1971
F0.0
s((I120
I-40
I-6
tp1972
I1
tp1973
F0.0
s((I0
I40
I-6
tp1974
I1
tp1975
F0.0
s(g1166
I1
tp1976
F0.0
s(g74
I1
tp1977
F0.0
s((I260
I240
I-8
tp1978
I1
tp1979
F0.0
s((I200
I20
I2
tp1980
I1
tp1981
F0.0
s(g118
I0
tp1982
F-2.4
s(g1173
I1
tp1983
F0.7084876234857908
s((I-20
I80
I3
tp1984
I1
tp1985
F0.0
s(g1176
I0
tp1986
F-1.9208333333333334
s((I80
I0
I9
tp1987
I0
tp1988
F0.7940353356369592
s((I40
I20
I-7
tp1989
I1
tp1990
F0.0
s(g176
I1
tp1991
F0.0
s((I40
I220
I-7
tp1992
I0
tp1993
F0.39046583333333335
s((I60
I40
I-1
tp1994
I0
tp1995
F0.39046583333333335
s((I80
I-60
I6
tp1996
I1
tp1997
F0.0
s(g1184
I0
tp1998
F0.8332306845831299
s(g1431
I1
tp1999
F0.0
s((I40
I-100
I-9
tp2000
I0
tp2001
F-3.77936340218842
s(g1187
I1
tp2002
F0.0
s((I100
I60
I-6
tp2003
I1
tp2004
F0.0
s((I-40
I100
I-7
tp2005
I0
tp2006
F-2.4
s((I80
I-60
I8
tp2007
I1
tp2008
F0.0
s((I80
I-40
I4
tp2009
I0
tp2010
F0.4478946933933333
s(g1190
I0
tp2011
F0.8332806433481452
s((I260
I20
I6
tp2012
I1
tp2013
F0.0
s((I360
I0
I6
tp2014
I1
tp2015
F0.0
s(g1194
I0
tp2016
F0.5829892322789304
s((I320
I80
I2
tp2017
I0
tp2018
F0.7152294744321055
s(g1205
I1
tp2019
F0.0
s((I80
I20
I7
tp2020
I0
tp2021
F0.8101875987624317
s((I80
I-140
I-7
tp2022
I0
tp2023
F0.48351540867270626
s((I80
I0
I10
tp2024
I1
tp2025
F0.0
s(g1834
I0
tp2026
F-1.9583333333333333
s(g1218
I0
tp2027
F0.8332734626620675
s((I100
I0
I7
tp2028
I0
tp2029
F0.5648742444646737
s((I40
I240
I-4
tp2030
I1
tp2031
F0.0
s((I100
I100
I1
tp2032
I0
tp2033
F0.8045970874261021
s(g1225
I0
tp2034
F0.8331548070920712
s((I100
I-20
I8
tp2035
I1
tp2036
F0.0
s(g1228
I1
tp2037
F0.0
s((I80
I60
I7
tp2038
I0
tp2039
F0.8158522915259139
s((I300
I140
I-3
tp2040
I0
tp2041
F0.7082582431945099
s((I-20
I80
I5
tp2042
I1
tp2043
F0.0
s(g234
I1
tp2044
F0.0
s((I80
I-160
I9
tp2045
I0
tp2046
F0.49816295954610657
s(g1171
I0
tp2047
F0.39046583333333335
s((I400
I0
I-6
tp2048
I1
tp2049
F0.0
s((I60
I-60
I8
tp2050
I1
tp2051
F0.0
s((I20
I-40
I-9
tp2052
I0
tp2053
F-6.45900353726304
s(g1738
I0
tp2054
F0.4865932161458334
s((I60
I-20
I-4
tp2055
I1
tp2056
F0.0
s((I40
I0
I-7
tp2057
I1
tp2058
F0.0
s((I160
I-80
I10
tp2059
I1
tp2060
F0.832524913000334
s(g1289
I0
tp2061
F0.684121101641402
s((I0
I20
I-3
tp2062
I0
tp2063
F0.2633818713747448
s(g1248
I0
tp2064
F-1.87034875786541
s(g797
I1
tp2065
F0.0
s((I0
I20
I2
tp2066
I1
tp2067
F0.0
s((I100
I100
I2
tp2068
I1
tp2069
F0.0
s(g833
I1
tp2070
F0.0
s((I300
I140
I-1
tp2071
I0
tp2072
F0.7083778154595517
s((I100
I0
I1
tp2073
I0
tp2074
F0.8097975258291656
s((I380
I80
I3
tp2075
I0
tp2076
F0.8332281919682091
s(g1262
I1
tp2077
F0.0
s(g1264
I0
tp2078
F0.833224438270883
s((I160
I-20
I8
tp2079
I1
tp2080
F0.0
s((I300
I20
I-1
tp2081
I1
tp2082
F0.0
s((I20
I-20
I-9
tp2083
I0
tp2084
F-4.895656767827564
s((I20
I-80
I-9
tp2085
I0
tp2086
F-4.612964621153862
s(g1269
I0
tp2087
F0.5127853450054123
s((I20
I100
I-7
tp2088
I0
tp2089
F-1.9208333333333334
s(g198
I1
tp2090
F0.0
s((I100
I20
I9
tp2091
I0
tp2092
F0.39046583333333335
s((I100
I100
I-2
tp2093
I1
tp2094
F0.0
s(g1328
I1
tp2095
F0.0
s((I180
I-120
I7
tp2096
I0
tp2097
F0.816401438225743
s((I160
I0
I7
tp2098
I0
tp2099
F0.5909840988044471
s((I200
I-20
I-2
tp2100
I0
tp2101
F0.7865994693901702
s(g1285
I1
tp2102
F0.0
s((I80
I0
I-3
tp2103
I0
tp2104
F0.5798792472200001
s((I300
I-80
I10
tp2105
I1
tp2106
F-2.4
s((I-40
I60
I-3
tp2107
I1
tp2108
F0.0
s((I120
I0
I-1
tp2109
I0
tp2110
F0.8240824434405265
s(g1128
I0
tp2111
F0.5746688617749192
s(g1140
I0
tp2112
F0.5927490762194978
s((I20
I40
I-7
tp2113
I0
tp2114
F0.7539991245623905
s((I300
I0
I-7
tp2115
I0
tp2116
F0.832894611745868
s(g1292
I0
tp2117
F0.8150057657724779
s((I240
I-100
I-7
tp2118
I0
tp2119
F0.8218473258975743
s(g1297
I1
tp2120
F0.0
s((I100
I120
I2
tp2121
I1
tp2122
F0.0
s(g1356
I1
tp2123
F0.0
s(g1303
I1
tp2124
F0.0
s((I20
I0
I-4
tp2125
I1
tp2126
F0.0
s(g1306
I0
tp2127
F-0.4140005783791305
s(g1308
I0
tp2128
F-1.889596066666667
s((I300
I-100
I-7
tp2129
I0
tp2130
F0.8308941254217201
s((I20
I-100
I2
tp2131
I1
tp2132
F0.0
s(g1313
I0
tp2133
F0.8332587908446192
s((I280
I-60
I-3
tp2134
I0
tp2135
F0.8268338978153794
s(g1318
I0
tp2136
F-2.8470679763730873
s((I100
I60
I5
tp2137
I0
tp2138
F0.8006481091118544
s(g1322
I0
tp2139
F0.8332920916400247
s(g1377
I1
tp2140
F0.0
s(g1324
I1
tp2141
F0.0
s((I160
I140
I10
tp2142
I1
tp2143
F0.0
s((I-40
I80
I-4
tp2144
I1
tp2145
F0.0
s((I140
I-60
I-3
tp2146
I1
tp2147
F0.0
s((I60
I-20
I-9
tp2148
I0
tp2149
F0.6780140228300312
s((I320
I100
I-3
tp2150
I0
tp2151
F0.39046583333333335
s((I400
I80
I-5
tp2152
I0
tp2153
F0.8338206614697437
s(g1339
I0
tp2154
F0.8328610695174177
s((I60
I0
I0
tp2155
I1
tp2156
F0.0
s((I340
I80
I-2
tp2157
I1
tp2158
F0.0
s(g254
I1
tp2159
F0.0
s((I60
I20
I-6
tp2160
I0
tp2161
F0.8034705503209818
s(g1344
I0
tp2162
F0.8331917193467197
s((I280
I-80
I-4
tp2163
I0
tp2164
F0.8316679410881618
s((I80
I80
I8
tp2165
I1
tp2166
F0.0
s(g1347
I0
tp2167
F0.8307748598236226
s((I40
I-100
I-3
tp2168
I1
tp2169
F-1.4325053359885156
s(g1397
I1
tp2170
F0.0
s(g1453
I1
tp2171
F0.0
s((I280
I-60
I-1
tp2172
I1
tp2173
F0.0
s((I80
I120
I0
tp2174
I1
tp2175
F0.0
s(g1353
I1
tp2176
F0.8221953552224981
s((I100
I-80
I2
tp2177
I1
tp2178
F0.0
s((I300
I100
I2
tp2179
I1
tp2180
F0.0
s((I280
I-60
I2
tp2181
I1
tp2182
F0.0
s(g1359
I1
tp2183
F0.0
s((I360
I40
I-8
tp2184
I1
tp2185
F0.0
s(g1551
I0
tp2186
F0.8162570117196458
s(g1366
I0
tp2187
F0.8950673663237738
s(g1369
I0
tp2188
F0.8156256024075015
s(g1372
I0
tp2189
F0.39046583333333335
s((I360
I40
I-5
tp2190
I0
tp2191
F0.0
s(g1374
I0
tp2192
F0.827692152102157
s((I-40
I80
I-2
tp2193
I1
tp2194
F0.0
s(g1426
I1
tp2195
F0.4016361228145004
s(g1380
I1
tp2196
F0.0
s((I60
I20
I0
tp2197
I1
tp2198
F0.0
s((I100
I20
I6
tp2199
I1
tp2200
F0.0
s((I200
I20
I4
tp2201
I0
tp2202
F0.8331383550019039
s(g1386
I0
tp2203
F-1.8795833333333336
s((I80
I60
I8
tp2204
I1
tp2205
F0.0
s((I140
I-120
I-6
tp2206
I1
tp2207
F0.0
s(g1391
I0
tp2208
F-3.5999999999999996
s((I280
I80
I6
tp2209
I0
tp2210
F0.39046583333333335
s((I360
I-20
I6
tp2211
I1
tp2212
F0.0
s(g1394
I0
tp2213
F0.8331664909615555
s((I20
I-40
I-4
tp2214
I1
tp2215
F-5.938113491019984
s(g2103
I1
tp2216
F0.0
s(g1771
I1
tp2217
F0.0
s((I400
I80
I-2
tp2218
I1
tp2219
F0.0
s((I-40
I20
I10
tp2220
I0
tp2221
F-2.951041666666667
s(g1404
I1
tp2222
F0.0
s((I80
I20
I9
tp2223
I0
tp2224
F0.8027204336364517
s(g1406
I1
tp2225
F0.8409886311626441
s(g98
I1
tp2226
F-1.5612813226017679
s(g1410
I1
tp2227
F0.0
s(g1413
I1
tp2228
F0.0
s((I100
I-40
I10
tp2229
I1
tp2230
F0.0
s(g1418
I0
tp2231
F0.7112211444217381
s((I400
I60
I-6
tp2232
I1
tp2233
F0.0
s(g1420
I0
tp2234
F-1.9583333333333333
s(g1422
I1
tp2235
F0.0
s((I220
I20
I-4
tp2236
I1
tp2237
F0.0
s(g1429
I0
tp2238
F0.7034951111642281
s((I60
I-40
I-8
tp2239
I1
tp2240
F0.0
s(g1433
I0
tp2241
F-1.8037437784016928
s((I300
I-40
I-5
tp2242
I0
tp2243
F0.8330846299320616
s((I-20
I60
I-8
tp2244
I1
tp2245
F-6.208226616616905
s(g1435
I1
tp2246
F0.0
s((I380
I20
I-7
tp2247
I0
tp2248
F0.7957561821922767
s(g1438
I0
tp2249
F0.8331811661550266
s((I280
I0
I10
tp2250
I1
tp2251
F0.0
s(g1441
I1
tp2252
F-0.30729935565503413
s((I20
I20
I-3
tp2253
I0
tp2254
F0.4033673510812692
s(g1445
I0
tp2255
F0.8332426173760668
s((I320
I-60
I10
tp2256
I1
tp2257
F0.8331563514956244
s(g1447
I0
tp2258
F-1.8870833333333332
s((I0
I20
I-5
tp2259
I0
tp2260
F0.7618805408505875
s(g1449
I1
tp2261
F0.0
s(g1451
I0
tp2262
F0.8064724610233263
s((I-40
I80
I4
tp2263
I1
tp2264
F0.0
s(g2050
I0
tp2265
F0.3017788973958333
s((I400
I0
I-9
tp2266
I0
tp2267
F0.8265425588493729
s((I20
I-20
I5
tp2268
I0
tp2269
F-1.9208333333333334
s(g1457
I1
tp2270
F0.0
s((I380
I0
I-1
tp2271
I1
tp2272
F0.0
s((I80
I-80
I6
tp2273
I1
tp2274
F0.0
s((I40
I-20
I-4
tp2275
I1
tp2276
F0.0
s((I80
I-140
I-9
tp2277
I1
tp2278
F0.0
s((I200
I-80
I4
tp2279
I1
tp2280
F0.0
s(g1465
I0
tp2281
F0.8206072837172275
s((I80
I100
I9
tp2282
I0
tp2283
F0.7790885219941376
s((I40
I-80
I-2
tp2284
I1
tp2285
F-1.9717832935583872
s(g1468
I0
tp2286
F-1.9208333333333334
s(g1528
I0
tp2287
F0.8171881554513709
s((I20
I60
I-3
tp2288
I0
tp2289
F0.4682839355849281
s(g1472
I0
tp2290
F0.41157083333333333
s(g1474
I0
tp2291
F0.44095770833333336
s((I80
I80
I7
tp2292
I0
tp2293
F0.7633433982568919
s(g2193
I0
tp2294
F0.6649474489580457
s(g1532
I1
tp2295
F0.0
s(g1478
I0
tp2296
F-3.3240744963407
s(g1481
I0
tp2297
F0.46423359184957835
s(g1484
I1
tp2298
F0.0
s((I60
I80
I3
tp2299
I0
tp2300
F0.4806334238
s(g1486
I0
tp2301
F0.5868525352925333
s((I120
I-60
I-2
tp2302
I1
tp2303
F0.0
s(g1488
I0
tp2304
F0.7803163386171088
s((I380
I-20
I2
tp2305
I1
tp2306
F0.0
s(g675
I1
tp2307
F0.0
s(g1490
I0
tp2308
F0.833275513755911
s((I20
I-20
I6
tp2309
I1
tp2310
F0.0
s(g1492
I0
tp2311
F-2.4
s((I80
I-140
I-8
tp2312
I1
tp2313
F0.0
s((I40
I40
I2
tp2314
I1
tp2315
F0.0
s((I120
I-20
I1
tp2316
I0
tp2317
F0.8281564943185695
s(g1497
I0
tp2318
F0.5394055112658334
s(g712
I0
tp2319
F0.8324201457271773
s(g1501
I1
tp2320
F0.0
s(g1504
I1
tp2321
F0.0
s((I400
I-20
I-4
tp2322
I1
tp2323
F0.0
s((I220
I40
I10
tp2324
I0
tp2325
F0.7636786155445607
s(g1518
I1
tp2326
F0.39046583333333335
s((I180
I-20
I6
tp2327
I1
tp2328
F0.0
s(g1520
I1
tp2329
F-7.614404429739137
s(g1522
I0
tp2330
F0.815051183363642
s((I100
I-140
I8
tp2331
I1
tp2332
F0.0
s((I200
I-100
I4
tp2333
I1
tp2334
F0.0
s((I60
I140
I6
tp2335
I1
tp2336
F0.0
s((I320
I-20
I-8
tp2337
I1
tp2338
F0.0
s(g1534
I0
tp2339
F0.39046583333333335
s((I-40
I80
I-6
tp2340
I0
tp2341
F-2.4260350129384007
s(g1720
I1
tp2342
F0.0
s(g1540
I0
tp2343
F-4.949045287671989
s(g594
I1
tp2344
F0.0
s(g1543
I1
tp2345
F0.0
s((I360
I0
I5
tp2346
I0
tp2347
F0.8332278163568825
s((I40
I-80
I-3
tp2348
I1
tp2349
F0.0
s((I80
I0
I-6
tp2350
I1
tp2351
F0.0
s((I100
I20
I-4
tp2352
I0
tp2353
F0.5472285243937622
s((I140
I240
I-6
tp2354
I1
tp2355
F0.0
s(g1553
I1
tp2356
F0.0
s((I160
I-40
I-9
tp2357
I0
tp2358
F0.8313494095970854
s((I360
I0
I8
tp2359
I1
tp2360
F0.0
s((I120
I260
I-2
tp2361
I1
tp2362
F0.0
s((I120
I-60
I2
tp2363
I1
tp2364
F0.0
s((I400
I-40
I-9
tp2365
I0
tp2366
F0.825225722261951
s((I100
I120
I8
tp2367
I1
tp2368
F0.0
s(g1561
I1
tp2369
F0.0
s((I180
I0
I6
tp2370
I0
tp2371
F0.8325254072293784
s(g1613
I0
tp2372
F0.5569142166666667
s((I100
I60
I10
tp2373
I1
tp2374
F0.0
s(g1563
I0
tp2375
F0.8332727787009171
s((I100
I140
I3
tp2376
I0
tp2377
F0.49308898956558733
s(g1566
I1
tp2378
F-3.231099449033429
s((I-20
I60
I1
tp2379
I0
tp2380
F0.18700959167062042
s(g1568
I0
tp2381
F0.39046583333333335
s(g1241
I0
tp2382
F0.7909633506249616
s(g1572
I1
tp2383
F0.0
s((I60
I100
I10
tp2384
I1
tp2385
F0.0
s((I-20
I40
I-7
tp2386
I0
tp2387
F0.6305037769336372
s((I280
I200
I-7
tp2388
I0
tp2389
F0.5781490110658334
s((I20
I-140
I5
tp2390
I0
tp2391
F-1.9583333333333333
s(g1584
I0
tp2392
F0.7284486767662617
s((I360
I40
I6
tp2393
I1
tp2394
F0.0
s(g1631
I0
tp2395
F-5.699123159304895
s(g1588
I0
tp2396
F-1.8795833333333336
s(g1595
I0
tp2397
F0.501300618359375
s(g1598
I0
tp2398
F-2.5658578094482425
s((I40
I-100
I1
tp2399
I0
tp2400
F-3.1630939194866596
s(g1600
I0
tp2401
F0.8333115926649218
s((I0
I80
I2
tp2402
I1
tp2403
F0.0
s(g1603
I1
tp2404
F0.0
s((I40
I80
I8
tp2405
I1
tp2406
F0.0
s((I240
I-20
I10
tp2407
I1
tp2408
F0.8333242129953415
s((I100
I40
I5
tp2409
I0
tp2410
F0.7829058343224937
s((I100
I0
I2
tp2411
I1
tp2412
F0.0
s(g1656
I0
tp2413
F-0.25994804404422617
s((I140
I-80
I-5
tp2414
I1
tp2415
F0.0
s(g1609
I1
tp2416
F0.0
s(g1611
I1
tp2417
F0.0
s((I80
I0
I-7
tp2418
I1
tp2419
F0.0
s((I-20
I40
I-6
tp2420
I1
tp2421
F0.0
s(g2399
I1
tp2422
F-5.154046174811058
s((I280
I200
I-6
tp2423
I1
tp2424
F0.0
s(g1618
I0
tp2425
F0.8161067619078717
s(g1620
I0
tp2426
F-1.9583333333333333
s(g2009
I1
tp2427
F0.0
s(g1677
I1
tp2428
F0.0
s((I60
I-60
I7
tp2429
I0
tp2430
F0.3935835175
s((I200
I240
I7
tp2431
I0
tp2432
F0.0
s((I280
I140
I3
tp2433
I1
tp2434
F0.0
s((I300
I60
I7
tp2435
I1
tp2436
F0.0
s((I100
I-40
I6
tp2437
I1
tp2438
F0.0
s((I100
I80
I-9
tp2439
I0
tp2440
F-1.9583333333333333
s((I40
I240
I-6
tp2441
I1
tp2442
F0.0
s(g1627
I1
tp2443
F0.0
s(g1634
I1
tp2444
F0.0
s((I80
I60
I5
tp2445
I0
tp2446
F0.8169736806968144
s((I100
I100
I4
tp2447
I0
tp2448
F0.8154474384795205
s((I100
I120
I-4
tp2449
I1
tp2450
F0.0
s(g1640
I0
tp2451
F-1.9583333333333333
s((I220
I-20
I-2
tp2452
I0
tp2453
F0.8332201169824125
s(g1642
I1
tp2454
F0.0
s((I100
I-120
I7
tp2455
I0
tp2456
F0.7485423077053234
s(g1644
I1
tp2457
F0.0
s(g1646
I1
tp2458
F0.0
s(g1649
I0
tp2459
F0.39046583333333335
s((I20
I-120
I7
tp2460
I0
tp2461
F-2.4
s((I100
I120
I5
tp2462
I0
tp2463
F0.7112814663070057
s((I20
I-100
I10
tp2464
I1
tp2465
F-2.4
s(g1662
I1
tp2466
F0.0
s(g1725
I1
tp2467
F0.0
s((I320
I-100
I-9
tp2468
I0
tp2469
F0.8305455474897111
s((I140
I-60
I-4
tp2470
I0
tp2471
F0.7881612065500982
s((I80
I0
I4
tp2472
I1
tp2473
F0.0
s(g1665
I0
tp2474
F0.39046583333333335
s(g1668
I0
tp2475
F0.8332869627762085
s(g1733
I0
tp2476
F0.8332790775322311
s((I180
I-40
I7
tp2477
I0
tp2478
F0.8328438817625617
s(g1673
I1
tp2479
F0.0
s((I80
I100
I5
tp2480
I0
tp2481
F0.8112555340017424
s((I20
I-60
I-5
tp2482
I0
tp2483
F-4.78340915653733
s((I0
I60
I-4
tp2484
I1
tp2485
F0.0
s(g1680
I1
tp2486
F0.0
s(g1685
I1
tp2487
F0.0
s((I140
I-100
I-6
tp2488
I1
tp2489
F0.0
s((I180
I-80
I9
tp2490
I0
tp2491
F0.8327117533292018
s(g1687
I1
tp2492
F-1.9583333333333333
s((I100
I-120
I5
tp2493
I0
tp2494
F0.4480968946741497
s(g1691
I0
tp2495
F0.8329703971185651
s((I160
I220
I-9
tp2496
I0
tp2497
F0.39046583333333335
s(g1693
I0
tp2498
F0.8254192617937592
s(g1695
I1
tp2499
F0.0
s((I80
I-120
I7
tp2500
I0
tp2501
F0.7550277043442277
s(g1698
I0
tp2502
F0.42766287435
s(g1751
I0
tp2503
F0.3931353496077399
s((I20
I40
I-9
tp2504
I0
tp2505
F0.5256506744841742
s(g1700
I1
tp2506
F0.0
s((I140
I-40
I-3
tp2507
I0
tp2508
F0.8285322255562012
s(g1933
I1
tp2509
F0.0
s((I100
I160
I-5
tp2510
I0
tp2511
F0.39046583333333335
s(g1331
I0
tp2512
F0.5967653928219296
s((I100
I40
I-4
tp2513
I1
tp2514
F-2.7041666666666666
s(g1709
I1
tp2515
F0.0
s(g1237
I1
tp2516
F0.0
s((I340
I-20
I9
tp2517
I0
tp2518
F0.8331894556374677
s(g1712
I0
tp2519
F0.833320963559393
s((I80
I100
I6
tp2520
I1
tp2521
F0.0
s((I220
I-20
I-5
tp2522
I0
tp2523
F0.83325234947784
s(g1718
I1
tp2524
F0.0
s(g1722
I1
tp2525
F0.0
s((I180
I-80
I10
tp2526
I1
tp2527
F0.0
s(g1727
I0
tp2528
F0.6983131810849468
s((I160
I-20
I-7
tp2529
I0
tp2530
F0.8309487707089163
s(g92
I1
tp2531
F0.0
s((I60
I0
I5
tp2532
I0
tp2533
F0.6038271078112802
s((I60
I180
I10
tp2534
I1
tp2535
F0.39046583333333335
s(g1402
I1
tp2536
F0.0
s((I20
I100
I-5
tp2537
I1
tp2538
F0.0
s((I300
I-120
I10
tp2539
I1
tp2540
F0.0
s(g644
I0
tp2541
F0.7776588035572376
s((I60
I-80
I-8
tp2542
I1
tp2543
F-1.7424420505822913
s((I80
I40
I-1
tp2544
I0
tp2545
F0.39046583333333335
s((I80
I-40
I7
tp2546
I0
tp2547
F0.5804035184236676
s(g1754
I0
tp2548
F-1.7428988557724585
s((I280
I100
I4
tp2549
I1
tp2550
F0.0
s(g1758
I0
tp2551
F0.8263793456258373
s((I420
I40
I-9
tp2552
I0
tp2553
F0.9940196985236636
s(g1761
I0
tp2554
F0.39046583333333335
s(g1764
I1
tp2555
F0.39046583333333335
s(g1768
I0
tp2556
F0.8327258716410241
s((I60
I0
I-9
tp2557
I0
tp2558
F0.7747843836417705
s(g1408
I1
tp2559
F0.0
s((I60
I0
I6
tp2560
I1
tp2561
F0.0
s(g2348
I0
tp2562
F-1.8293708333333334
s((I40
I20
I2
tp2563
I1
tp2564
F0.0
s(g1779
I0
tp2565
F0.5733349206913684
s((I80
I40
I10
tp2566
I1
tp2567
F0.0
s(g1781
I1
tp2568
F0.39046583333333335
s(g1831
I0
tp2569
F0.8331562353308546
s(g1783
I0
tp2570
F0.8331642735492266
s((I240
I-20
I-6
tp2571
I1
tp2572
F0.0
s(g1786
I1
tp2573
F0.0
s(g2452
I1
tp2574
F0.0
s((I20
I80
I-5
tp2575
I0
tp2576
F0.7263565081139032
s((I40
I-40
I7
tp2577
I0
tp2578
F-1.8601041666666664
s(g2352
I1
tp2579
F0.0
s(g1793
I0
tp2580
F0.7291173115928251
s((I240
I0
I-9
tp2581
I0
tp2582
F0.6066661070646252
s(g1845
I1
tp2583
F0.0
s(g1799
I0
tp2584
F0.8308290530613287
s(g495
I0
tp2585
F0.39046583333333335
s((I380
I60
I3
tp2586
I1
tp2587
F0.0
s((I100
I-60
I8
tp2588
I1
tp2589
F0.0
s((I420
I80
I-8
tp2590
I1
tp2591
F0.0
s(g1803
I0
tp2592
F-2.4
s((I200
I-20
I4
tp2593
I1
tp2594
F0.0
s((I240
I260
I-3
tp2595
I0
tp2596
F0.0
s((I40
I0
I-8
tp2597
I0
tp2598
F0.7639436172723829
s(g1811
I1
tp2599
F0.0
s((I40
I-40
I-7
tp2600
I0
tp2601
F-4.664227604166667
s(g1814
I0
tp2602
F0.7426214166948308
s(g1868
I1
tp2603
F0.0
s((I220
I20
I-5
tp2604
I0
tp2605
F0.833315257642028
s((I360
I-60
I7
tp2606
I0
tp2607
F0.8179053416359926
s((I360
I20
I0
tp2608
I1
tp2609
F0.0
s(g1820
I1
tp2610
F0.0
s((I180
I180
I-9
tp2611
I0
tp2612
F0.39046583333333335
s((I200
I0
I3
tp2613
I1
tp2614
F0.0
s((I160
I-160
I9
tp2615
I0
tp2616
F-1.8223208333333334
s((I200
I240
I6
tp2617
I0
tp2618
F0.47191194543250004
s(g1827
I1
tp2619
F0.0
s((I120
I-20
I-1
tp2620
I0
tp2621
F0.829415989302243
s((I40
I-80
I-7
tp2622
I0
tp2623
F-4.332291352147966
s((I40
I40
I9
tp2624
I1
tp2625
F0.0
s((I20
I-60
I-2
tp2626
I0
tp2627
F-1.9208333333333334
s((I20
I0
I-6
tp2628
I1
tp2629
F0.7244300726037589
s((I280
I20
I2
tp2630
I1
tp2631
F0.0
s((I200
I20
I0
tp2632
I1
tp2633
F0.0
s(g1838
I0
tp2634
F0.796158414455637
s((I240
I260
I-2
tp2635
I1
tp2636
F0.0
s(g1840
I0
tp2637
F0.7901185831566735
s((I60
I-120
I-3
tp2638
I0
tp2639
F0.39046583333333335
s((I-40
I80
I1
tp2640
I0
tp2641
F0.8238031626001612
s((I260
I-80
I2
tp2642
I0
tp2643
F0.8321692046493578
s(g1870
I1
tp2644
F0.0
s(g1847
I1
tp2645
F0.0
s(g1849
I0
tp2646
F0.8201793890000248
s(g1852
I0
tp2647
F0.6777436624593773
s((I40
I20
I9
tp2648
I0
tp2649
F0.6997096207909315
s(g1854
I0
tp2650
F0.8332909605783314
s((I140
I-20
I-2
tp2651
I0
tp2652
F0.8306321413683142
s((I40
I20
I-3
tp2653
I0
tp2654
F0.8015401042838859
s(g1860
I1
tp2655
F0.0
s(g1863
I1
tp2656
F0.0
s((I280
I-60
I0
tp2657
I1
tp2658
F0.0
s((I200
I-40
I2
tp2659
I1
tp2660
F0.0
s(g1865
I0
tp2661
F0.5349934055592054
s((I380
I0
I2
tp2662
I1
tp2663
F0.0
s((I260
I20
I4
tp2664
I1
tp2665
F0.0
s((I120
I-80
I-3
tp2666
I0
tp2667
F0.7450078294402689
s(g1875
I1
tp2668
F0.0
s((I40
I40
I7
tp2669
I1
tp2670
F0.0
s(g988
I0
tp2671
F0.8333204464009145
s((I-40
I100
I0
tp2672
I1
tp2673
F0.0
s((I100
I-100
I4
tp2674
I1
tp2675
F0.0
s((I280
I140
I2
tp2676
I1
tp2677
F0.0
s((I-40
I80
I2
tp2678
I1
tp2679
F0.0
s(g1880
I0
tp2680
F0.7950282949606878
s((I200
I0
I0
tp2681
I1
tp2682
F0.0
s(g1883
I1
tp2683
F0.0
s(g1886
I1
tp2684
F-5.282659976943259
s(g1888
I0
tp2685
F0.8332370648043443
s((I20
I0
I-7
tp2686
I0
tp2687
F0.7016854415017789
s((I40
I20
I10
tp2688
I1
tp2689
F0.0
s((I300
I-80
I-7
tp2690
I0
tp2691
F0.8300406110882392
s((I160
I-120
I-7
tp2692
I1
tp2693
F0.0
s(g1896
I1
tp2694
F0.0
s((I160
I-60
I-8
tp2695
I1
tp2696
F0.0
s((I220
I0
I-1
tp2697
I1
tp2698
F0.0
s((I100
I80
I5
tp2699
I0
tp2700
F0.8184843029135185
s((I360
I20
I-6
tp2701
I1
tp2702
F0.0
s(g1899
I0
tp2703
F0.8179998246380997
s((I380
I40
I-3
tp2704
I0
tp2705
F0.8316260746761887
s(g1901
I0
tp2706
F0.8333225107028022
s((I200
I0
I-2
tp2707
I0
tp2708
F0.6717410422539755
s((I120
I-80
I-2
tp2709
I1
tp2710
F0.0
s(g1342
I1
tp2711
F0.0
s(g1908
I1
tp2712
F0.0
s((I40
I-160
I10
tp2713
I1
tp2714
F0.0
s(g1822
I0
tp2715
F-1.8567083333333336
s(g1910
I1
tp2716
F0.0
s(g1965
I0
tp2717
F0.6005533445968201
s(g1912
I1
tp2718
F0.0
s((I360
I-20
I4
tp2719
I0
tp2720
F0.8251738548594917
s((I100
I180
I0
tp2721
I1
tp2722
F0.0
s(g1915
I1
tp2723
F0.0
s(g1917
I0
tp2724
F0.8331351001046461
s(g1920
I0
tp2725
F0.8157584564691014
s((I340
I80
I-5
tp2726
I0
tp2727
F0.7082548269339018
s(g1052
I0
tp2728
F0.4369906210030198
s(g1925
I1
tp2729
F0.0
s((I80
I-80
I8
tp2730
I1
tp2731
F0.0
s(g1929
I1
tp2732
F0.0
s((I80
I120
I5
tp2733
I0
tp2734
F0.6749721229714634
s((I100
I40
I-9
tp2735
I1
tp2736
F-5.218973958333334
s((I0
I20
I0
tp2737
I1
tp2738
F-0.43740676462948913
s((I380
I40
I-1
tp2739
I1
tp2740
F0.0
s(g1989
I0
tp2741
F0.6263023107450504
s((I200
I-40
I1
tp2742
I1
tp2743
F0.0
s((I280
I-40
I4
tp2744
I1
tp2745
F0.0
s(g1938
I1
tp2746
F0.0
s(g1940
I1
tp2747
F0.0
s((I380
I20
I-3
tp2748
I0
tp2749
F0.8331068601036966
s(g1942
I0
tp2750
F-1.853708333333333
s(g1944
I1
tp2751
F0.0
s((I60
I-20
I1
tp2752
I0
tp2753
F0.4842708577694436
s(g1948
I0
tp2754
F0.8332365842272611
s((I20
I60
I-9
tp2755
I0
tp2756
F0.47254275069537066
s((I20
I-40
I10
tp2757
I1
tp2758
F0.0
s(g1951
I0
tp2759
F-1.7634665755208332
s(g1274
I0
tp2760
F0.7747840532191583
s((I80
I80
I9
tp2761
I0
tp2762
F0.8019348963093162
s((I140
I0
I-4
tp2763
I1
tp2764
F0.0
s(g1956
I1
tp2765
F0.0
s((I380
I0
I-5
tp2766
I0
tp2767
F0.8313353959035952
s(g1958
I0
tp2768
F0.8329065575867953
s(g1960
I0
tp2769
F-3.878333333333333
s((I100
I100
I-4
tp2770
I1
tp2771
F0.0
s((I200
I220
I7
tp2772
I0
tp2773
F0.47025871676666675
s((I20
I40
I0
tp2774
I1
tp2775
F0.0
s(g2563
I0
tp2776
F0.7118207579904298
s(g1967
I0
tp2777
F0.7633236219234711
s(g1970
I0
tp2778
F0.8332809541088775
s(g1974
I0
tp2779
F0.6311709842081346
s((I380
I20
I-2
tp2780
I1
tp2781
F0.0
s((I200
I-60
I3
tp2782
I0
tp2783
F0.8271844581782402
s(g1980
I0
tp2784
F0.8331739451084732
s((I20
I-40
I-6
tp2785
I1
tp2786
F-5.125592291158004
s(g1791
I1
tp2787
F0.0
s((I80
I-20
I6
tp2788
I1
tp2789
F0.0
s(g1987
I1
tp2790
F0.0
s((I140
I-120
I10
tp2791
I1
tp2792
F0.0
s(g2409
I1
tp2793
F0.0
s((I60
I140
I7
tp2794
I0
tp2795
F0.3914258333333333
s(g2042
I0
tp2796
F-2.90510746651557
s(g697
I0
tp2797
F-1.8870833333333332
s(g2003
I0
tp2798
F-2.2047670833333335
s((I100
I-100
I9
tp2799
I0
tp2800
F0.719592061580994
s((I100
I140
I5
tp2801
I1
tp2802
F0.0
s(g2007
I0
tp2803
F0.8259631263010234
s((I240
I260
I-1
tp2804
I0
tp2805
F0.4551367369791667
s(g2012
I0
tp2806
F0.8333051844319226
s(g2057
I0
tp2807
F0.6865434836851637
s((I220
I240
I2
tp2808
I0
tp2809
F0.4297285074666667
s((I240
I-100
I8
tp2810
I1
tp2811
F0.831895029050601
s((I-20
I60
I-3
tp2812
I0
tp2813
F0.7915521316807551
s((I20
I100
I-6
tp2814
I1
tp2815
F0.0
s(g2020
I1
tp2816
F0.0
s(g2209
I1
tp2817
F0.0
s(g2024
I0
tp2818
F0.7813153539442101
s(g799
I1
tp2819
F0.0
s((I300
I-80
I-1
tp2820
I0
tp2821
F0.813880942034489
s((I60
I140
I8
tp2822
I1
tp2823
F0.0
s((I380
I100
I-1
tp2824
I1
tp2825
F0.0
s(g1066
I1
tp2826
F0.0
s((I80
I80
I5
tp2827
I0
tp2828
F0.8134775608490945
s(g2028
I1
tp2829
F0.0
s(g2030
I0
tp2830
F-1.8870833333333332
s((I80
I-40
I-4
tp2831
I1
tp2832
F0.0
s(g2032
I1
tp2833
F0.0
s(g2035
I0
tp2834
F0.8054871393343692
s(g2038
I1
tp2835
F0.0
s((I100
I-120
I8
tp2836
I1
tp2837
F0.0
s((I320
I-100
I-7
tp2838
I0
tp2839
F0.826042690888293
s(g2045
I1
tp2840
F0.0
s((I240
I-100
I-6
tp2841
I1
tp2842
F0.0
s(g2048
I0
tp2843
F0.8378234259164818
s((I20
I-40
I-7
tp2844
I1
tp2845
F-4.631893180157757
s(g2055
I0
tp2846
F0.8138418508697002
s((I100
I100
I-9
tp2847
I0
tp2848
F-3.062596083333333
s(g2059
I0
tp2849
F-2.8957959635416666
s(g2109
I1
tp2850
F0.0
s(g2062
I1
tp2851
F0.0
s(g2066
I0
tp2852
F-1.748451481282145
s((I400
I-20
I-7
tp2853
I0
tp2854
F0.8142026874575042
s((I60
I-60
I-5
tp2855
I0
tp2856
F0.8230447606274802
s(g2068
I0
tp2857
F0.8085054845803323
s((I320
I0
I-7
tp2858
I0
tp2859
F0.8333260197809014
s((I120
I0
I-2
tp2860
I1
tp2861
F0.0
s((I60
I-40
I-7
tp2862
I1
tp2863
F0.0
s((I260
I-100
I8
tp2864
I1
tp2865
F0.0
s((I80
I-60
I-8
tp2866
I0
tp2867
F0.7910871286426837
s((I60
I-20
I-8
tp2868
I1
tp2869
F0.0
s((I320
I-100
I-6
tp2870
I1
tp2871
F0.0
s(g2083
I1
tp2872
F-6.175224849864353
s((I400
I80
I-4
tp2873
I1
tp2874
F0.0
s(g718
I1
tp2875
F0.0
s(g2085
I1
tp2876
F-6.599256508938318
s((I0
I40
I3
tp2877
I0
tp2878
F-1.285861208644763
s(g2088
I1
tp2879
F-1.9583333333333333
s((I80
I120
I6
tp2880
I1
tp2881
F0.0
s(g2093
I0
tp2882
F0.4610308187333333
s((I100
I-40
I8
tp2883
I1
tp2884
F0.818528184732931
s(g2096
I1
tp2885
F0.0
s((I180
I0
I4
tp2886
I0
tp2887
F0.8327369000610518
s(g1586
I1
tp2888
F0.0
s(g132
I1
tp2889
F-5.735712271914155
s(g2105
I0
tp2890
F-2.8551252249943033
s((I180
I200
I10
tp2891
I1
tp2892
F0.0
s(g2160
I1
tp2893
F0.0
s((I20
I20
I-8
tp2894
I1
tp2895
F0.0
s((I60
I-120
I-9
tp2896
I1
tp2897
F0.0
s((I60
I60
I4
tp2898
I1
tp2899
F0.0
s(g2115
I1
tp2900
F0.0
s((I340
I60
I-6
tp2901
I1
tp2902
F0.0
s((I20
I20
I-5
tp2903
I0
tp2904
F0.37109750642113515
s((I80
I20
I8
tp2905
I1
tp2906
F0.0
s(g2118
I1
tp2907
F0.0
s((I220
I0
I-3
tp2908
I1
tp2909
F0.0
s(g2121
I0
tp2910
F0.8094331609769552
s((I100
I60
I4
tp2911
I0
tp2912
F0.7970262946530688
s(g2125
I0
tp2913
F0.5116275577326027
s(g2129
I1
tp2914
F0.0
s((I-20
I20
I3
tp2915
I0
tp2916
F-1.8870833333333332
s(g2131
I0
tp2917
F-1.9208333333333334
s((I280
I-160
I10
tp2918
I1
tp2919
F0.0
s(g2134
I1
tp2920
F0.0
s(g2137
I1
tp2921
F0.0
s((I100
I20
I-3
tp2922
I0
tp2923
F0.5312793617992334
s((I220
I-100
I-5
tp2924
I0
tp2925
F0.8143113793054998
s((I420
I40
I-8
tp2926
I1
tp2927
F0.0
s(g2142
I0
tp2928
F0.44095770833333336
s(g1816
I0
tp2929
F0.6273156443828278
s((I240
I100
I10
tp2930
I1
tp2931
F0.0
s((I180
I-80
I3
tp2932
I0
tp2933
F0.8231399844069185
s(g2201
I1
tp2934
F0.0
s(g2144
I0
tp2935
F-2.779159311617692
s((I140
I-80
I-1
tp2936
I0
tp2937
F0.7607705512412102
s(g2148
I1
tp2938
F0.0
s(g2152
I1
tp2939
F0.0
s(g2155
I0
tp2940
F0.705960374842292
s((I380
I0
I-9
tp2941
I0
tp2942
F0.8024252367262721
s(g2157
I0
tp2943
F0.7083778154595517
s((I360
I20
I8
tp2944
I1
tp2945
F0.0
s((I120
I-20
I4
tp2946
I1
tp2947
F0.0
s((I-40
I20
I7
tp2948
I0
tp2949
F-1.8802401666666664
s((I-20
I20
I4
tp2950
I1
tp2951
F0.6444643233282019
s(g270
I1
tp2952
F0.0
s(g2172
I0
tp2953
F0.8316023980668097
s((I40
I20
I-8
tp2954
I1
tp2955
F0.0
s(g2174
I0
tp2956
F0.39046583333333335
s((I60
I-60
I-8
tp2957
I1
tp2958
F0.0
s(g2177
I0
tp2959
F0.7146541939096254
s((I240
I-20
I-7
tp2960
I0
tp2961
F0.8332970446578938
s((I60
I40
I7
tp2962
I0
tp2963
F0.7369410854368033
s(g2179
I0
tp2964
F0.39046583333333335
s((I80
I100
I8
tp2965
I1
tp2966
F0.0
s((I-40
I80
I-8
tp2967
I1
tp2968
F-5.526975260416666
s((I280
I20
I10
tp2969
I1
tp2970
F0.0
s(g2184
I0
tp2971
F0.7132042720217568
s((I160
I200
I-8
tp2972
I0
tp2973
F0.39046583333333335
s((I20
I20
I-2
tp2974
I1
tp2975
F0.0
s((I140
I0
I-3
tp2976
I0
tp2977
F0.8272981656210185
s(g2190
I1
tp2978
F0.7800476269907431
s((I260
I-60
I1
tp2979
I0
tp2980
F0.799722776658149
s((I280
I-80
I-3
tp2981
I0
tp2982
F0.83154643561492
s((I60
I0
I-2
tp2983
I0
tp2984
F0.7636613386789463
s((I400
I100
I-3
tp2985
I0
tp2986
F0.8332392963809316
s(g2197
I0
tp2987
F0.4863124610560945
s((I100
I-40
I3
tp2988
I0
tp2989
F0.7376409141742593
s(g2199
I0
tp2990
F0.7852973251240811
s((I120
I-20
I0
tp2991
I1
tp2992
F0.0
s((I200
I-40
I10
tp2993
I1
tp2994
F0.0
s((I100
I-120
I6
tp2995
I0
tp2996
F0.7678718954269158
s((I180
I-60
I9
tp2997
I0
tp2998
F0.8326554140363454
s(g2206
I0
tp2999
F0.47082142408173167
s(g2418
I0
tp3000
F0.5910413798651704
s((I20
I60
I-2
tp3001
I1
tp3002
F0.0
s(g2211
I0
tp3003
F0.8328477728070296
s((I20
I-20
I-4
tp3004
I1
tp3005
F0.0
s((I220
I-120
I-4
tp3006
I1
tp3007
F0.0
s((I200
I-20
I-3
tp3008
I0
tp3009
F0.7304608578936628
s(g2218
I0
tp3010
F0.8332876702474463
s((I400
I0
I-3
tp3011
I0
tp3012
F0.8327956968097994
s((I40
I-40
I6
tp3013
I0
tp3014
F0.3608125
s(g2277
I0
tp3015
F0.526652620827166
s(g2223
I1
tp3016
F0.0
s((I260
I-60
I2
tp3017
I1
tp3018
F0.0
s(g1071
I0
tp3019
F0.658997380121518
s(g82
I0
tp3020
F0.06960385000043971
s((I120
I-60
I0
tp3021
I1
tp3022
F0.0
s((I0
I80
I-1
tp3023
I0
tp3024
F-2.612407345373034
s((I300
I140
I-5
tp3025
I0
tp3026
F0.7082544866919613
s((I200
I220
I9
tp3027
I1
tp3028
F0.0
s(g2229
I0
tp3029
F0.7548416956843249
s((I100
I120
I4
tp3030
I0
tp3031
F0.6618513271472501
s((I180
I-60
I10
tp3032
I1
tp3033
F0.0
s(g2232
I0
tp3034
F0.8378567167951559
s((I360
I0
I4
tp3035
I1
tp3036
F0.0
s(g202
I1
tp3037
F0.0
s((I260
I0
I7
tp3038
I0
tp3039
F0.833323143270335
s(g2242
I1
tp3040
F0.0
s(g2244
I0
tp3041
F-5.29828928280717
s(g2100
I1
tp3042
F0.0
s(g2247
I1
tp3043
F0.0
s((I40
I-60
I-3
tp3044
I0
tp3045
F-1.8870833333333332
s(g2253
I1
tp3046
F0.0
s(g2256
I0
tp3047
F-2.838080446000474
s(g216
I0
tp3048
F0.7884537791310389
s((I420
I0
I-9
tp3049
I0
tp3050
F0.9939990770760847
s(g2263
I0
tp3051
F0.39046583333333335
s(g2266
I1
tp3052
F0.0
s(g2268
I1
tp3053
F0.0
s(g1310
I1
tp3054
F0.0
s((I40
F-180.0
I10
tp3055
I1
tp3056
F0.0
s(g2275
I0
tp3057
F0.788721498908173
s((I200
I-40
I0
tp3058
I1
tp3059
F0.0
s(g2279
I0
tp3060
F0.8194963834922759
s((I60
I-40
I-6
tp3061
I0
tp3062
F0.76888304558936
s(g2282
I1
tp3063
F0.0
s(g859
I0
tp3064
F-1.9208333333333334
s(g2284
I0
tp3065
F-1.8567083333333336
s((I220
I0
I-8
tp3066
I0
tp3067
F0.6513298315659366
s((I80
I20
I0
tp3068
I0
tp3069
F0.6562133341530938
s((I40
I-40
I1
tp3070
I0
tp3071
F-1.8622979044596353
s(g2288
I1
tp3072
F0.0
s((I60
I-100
I-1
tp3073
I1
tp3074
F0.0
s((I160
I-40
I-8
tp3075
I1
tp3076
F0.0
s((I20
I-40
I2
tp3077
I1
tp3078
F0.0
s(g2292
I1
tp3079
F0.0
s((I-20
I40
I-8
tp3080
I1
tp3081
F0.0
s((I260
I-100
I5
tp3082
I0
tp3083
F0.7191407555752604
s((I20
I80
I-8
tp3084
I1
tp3085
F0.0
s(g2299
I1
tp3086
F0.0
s((I60
I-20
I9
tp3087
I1
tp3088
F0.0
s((I220
F-80.0
I10
tp3089
I1
tp3090
F0.0
s((I400
I-40
I-8
tp3091
I1
tp3092
F0.0
s(g2305
I0
tp3093
F0.8249502213436741
s((I60
I-60
I9
tp3094
I0
tp3095
F0.589873663091784
s(g2309
I0
tp3096
F-1.9583333333333333
s(g445
I1
tp3097
F0.0
s(g2312
I0
tp3098
F0.4999878789761423
s((I400
I-40
I-5
tp3099
I0
tp3100
F0.8022322085655749
s(g2314
I0
tp3101
F0.39046583333333335
s((I340
I0
I5
tp3102
I0
tp3103
F0.8322549599912072
s(g2316
I1
tp3104
F0.0
s(g1547
I0
tp3105
F-1.8293708333333334
s((I-40
I100
I-6
tp3106
I1
tp3107
F-2.4
s(g2322
I0
tp3108
F0.8166128861708731
s((I-20
I100
I-6
tp3109
I1
tp3110
F-5.3483333333333345
s((I-40
I40
I5
tp3111
I0
tp3112
F-1.8745884266666668
s((I260
I120
I7
tp3113
I0
tp3114
F0.7422826266248126
s((I300
I20
I-6
tp3115
I1
tp3116
F0.0
s(g2327
I0
tp3117
F0.8328740538853616
s((I40
I60
I-7
tp3118
I0
tp3119
F0.7882405978115858
s((I220
I0
I-2
tp3120
I0
tp3121
F0.8332350309432195
s((I20
I-40
I-3
tp3122
I0
tp3123
F-2.4
s(g2331
I0
tp3124
F0.45355958481863695
s((I40
I-60
I-5
tp3125
I0
tp3126
F-0.8913124054664963
s((I-20
I80
I-8
tp3127
I1
tp3128
F-6.397098925026414
s((I40
I-40
I-2
tp3129
I1
tp3130
F0.0
s((I240
I-80
I-7
tp3131
I0
tp3132
F0.8308080851068815
s(g2333
I0
tp3133
F0.8067347637227822
s(g449
I1
tp3134
F0.0
s((I40
I80
I-8
tp3135
I1
tp3136
F-1.8049667187500003
s(g2204
I0
tp3137
F0.8163608853350217
s((I340
I0
I6
tp3138
I1
tp3139
F0.0
s(g2337
I0
tp3140
F0.8332893446295693
s((I60
I-120
I10
tp3141
I1
tp3142
F0.5051191580292631
s((I100
I40
I6
tp3143
I1
tp3144
F0.0
s((I260
I-20
I5
tp3145
I0
tp3146
F0.833285420345667
s((I300
I140
I-8
tp3147
I0
tp3148
F0.5918743576200001
s((I-40
I40
I6
tp3149
I1
tp3150
F0.0
s(g84
I0
tp3151
F0.39046583333333335
s(g2346
I1
tp3152
F0.0
s(g2350
I0
tp3153
F0.6064977437393835
s(g2354
I0
tp3154
F0.39046583333333335
s((I40
I60
I-6
tp3155
I1
tp3156
F0.0
s(g2357
I1
tp3157
F0.0
s(g2361
I0
tp3158
F0.39046583333333335
s((I300
I40
I-3
tp3159
I0
tp3160
F0.8326724238624803
s((I380
I20
I-8
tp3161
I0
tp3162
F0.7996668907300071
s(g2363
I0
tp3163
F0.7986160762948218
s((I100
I160
I1
tp3164
I0
tp3165
F0.4945790798963695
s(g2365
I1
tp3166
F0.0
s(g34
I1
tp3167
F0.0
s((I120
I-80
I-1
tp3168
I0
tp3169
F0.8186332876082498
s(g2373
I0
tp3170
F-2.951041666666667
s((I80
I-60
I5
tp3171
I0
tp3172
F0.44765875739654537
s(g2376
I1
tp3173
F0.0
s((I0
I80
I-9
tp3174
I0
tp3175
F-1.9375
s((I220
I0
I-6
tp3176
I1
tp3177
F0.0
s((I320
I-40
I-7
tp3178
I0
tp3179
F0.8331975827936777
s(g2005
I1
tp3180
F0.0
s(g342
I1
tp3181
F0.0
s(g2014
I0
tp3182
F0.8332278000180022
s((I80
I-40
I3
tp3183
I1
tp3184
F0.0
s(g1278
I1
tp3185
F0.0
s((I20
I-80
I1
tp3186
I1
tp3187
F0.0
s((I400
I-20
I-9
tp3188
I0
tp3189
F0.8197042305872912
s(g2386
I1
tp3190
F0.0
s(g2388
I1
tp3191
F0.0
s((I320
I140
I-6
tp3192
I1
tp3193
F0.0
s((I380
I20
I-9
tp3194
I0
tp3195
F0.736940380976632
s(g2393
I0
tp3196
F0.8333163001190893
s(g1606
I0
tp3197
F0.6542331731962714
s((I100
I160
I2
tp3198
I1
tp3199
F0.0
s(g2447
I1
tp3200
F0.0
s((I280
I-80
I-1
tp3201
I1
tp3202
F0.0
s(g551
I1
tp3203
F0.0
s((I360
I20
I7
tp3204
I0
tp3205
F0.833292623367023
s((I180
I-100
I8
tp3206
I1
tp3207
F0.0
s(g2402
I0
tp3208
F0.46727108280978646
s(g2405
I0
tp3209
F0.49370257429175557
s(g2407
I0
tp3210
F-1.7254969751598945
s((I320
I80
I0
tp3211
I1
tp3212
F0.0
s(g571
I1
tp3213
F0.0
s((I60
I-40
I9
tp3214
I0
tp3215
F0.764796012898764
s((I20
I20
I3
tp3216
I0
tp3217
F-1.9583333333333333
s(g2273
I0
tp3218
F0.6269965157282679
s((I280
I-80
I2
tp3219
I1
tp3220
F0.0
s(g515
I1
tp3221
F0.0
s(g1984
I0
tp3222
F0.3361751311277211
s(g2420
I0
tp3223
F0.63319770815491
s((I80
I-120
I8
tp3224
I1
tp3225
F0.0
s((I280
I-20
I2
tp3226
I1
tp3227
F0.0
s(g2423
I0
tp3228
F0.5514984525458333
s((I-20
I40
I8
tp3229
I1
tp3230
F-1.3970327521598989
s((I380
I100
I0
tp3231
I0
tp3232
F0.8333013095018362
s(g705
I1
tp3233
F0.0
s(g3147
I1
tp3234
F0.0
s(g588
I0
tp3235
F0.721488892681335
s((I60
I-100
I-8
tp3236
I0
tp3237
F0.4807455857751629
s(g2437
I0
tp3238
F0.8186519961004213
s((I240
I-20
I-8
tp3239
I1
tp3240
F0.0
s((I180
I-120
I6
tp3241
I1
tp3242
F0.0
s(g2439
I1
tp3243
F-3.711875
s((I0
I80
I-8
tp3244
I1
tp3245
F0.0
s((I140
I-20
I-5
tp3246
I0
tp3247
F0.8315215722498643
s(g2441
I0
tp3248
F-1.8293708333333334
s((I220
I-20
I-4
tp3249
I1
tp3250
F0.0
s((I320
I0
I10
tp3251
I0
tp3252
F0.833106071464832
s(g2445
I1
tp3253
F0.0
s(g2449
I0
tp3254
F0.39046583333333335
s(g1388
I1
tp3255
F0.0
s(g2455
I1
tp3256
F0.0
s((I160
I-20
I-6
tp3257
I1
tp3258
F0.0
s(g2460
I1
tp3259
F0.0
s(g1028
I0
tp3260
F0.6962953128725788
s(g2462
I1
tp3261
F0.0
s(g2464
I0
tp3262
F-2.951041666666667
s(g3214
I1
tp3263
F0.0
s((I60
I0
I-7
tp3264
I1
tp3265
F0.0
s(g2468
I1
tp3266
F0.0
s(g2472
I0
tp3267
F0.6686276497551356
s((I260
I100
I9
tp3268
I0
tp3269
F0.7533305028228068
s(g2477
I1
tp3270
F0.0
s((I80
I-40
I8
tp3271
I1
tp3272
F0.0
s(g2480
I1
tp3273
F0.0
s(g805
I0
tp3274
F0.7352954774478904
s(g2429
I1
tp3275
F0.0
s((I400
I60
I-3
tp3276
I0
tp3277
F0.8333201361802518
s(g2484
I0
tp3278
F0.7506920975074254
s((I160
I-100
I7
tp3279
I0
tp3280
F0.7258150341664638
s(g2488
I0
tp3281
F0.8099662816277517
s(g2490
I1
tp3282
F0.0
s(g2537
I0
tp3283
F-1.9208333333333334
s(g2496
I1
tp3284
F0.0
s((I60
I-20
I10
tp3285
I0
tp3286
F-0.7557757505636515
s(g2500
I1
tp3287
F0.0
s((I20
I20
I7
tp3288
I0
tp3289
F-1.9583333333333333
s(g2504
I1
tp3290
F0.0
s((I80
I0
I0
tp3291
I1
tp3292
F0.0
s(g2507
I1
tp3293
F0.0
s(g2886
I1
tp3294
F0.0
s(g2302
I0
tp3295
F0.7564690750617998
s(g2513
I0
tp3296
F-1.7826237083333334
s((I320
I120
I-9
tp3297
I0
tp3298
F0.7082860246284537
s(g2517
I1
tp3299
F0.0
s((I40
I-20
I-9
tp3300
I0
tp3301
F0.7181227477726053
s(g2520
I0
tp3302
F0.8135201432874481
s((I400
I60
I-2
tp3303
I1
tp3304
F0.0
s(g2522
I1
tp3305
F0.0
s((I80
I100
I-2
tp3306
I0
tp3307
F0.5147645673034666
s((I240
I-140
I-8
tp3308
I1
tp3309
F0.0
s((I100
I0
I-5
tp3310
I0
tp3311
F0.5394055112658334
s(g2526
I0
tp3312
F0.803919664793669
s((I380
I0
I0
tp3313
I1
tp3314
F0.0
s((I20
I-120
I4
tp3315
I1
tp3316
F0.0
s((I100
I-20
I1
tp3317
I0
tp3318
F0.6800930972233299
s(g2529
I1
tp3319
F0.0
s((I260
I-80
I4
tp3320
I1
tp3321
F0.0
s(g2532
I1
tp3322
F0.0
s(g2534
I0
tp3323
F0.0
s((I60
I100
I9
tp3324
I0
tp3325
F0.7928131031139182
s((I40
I40
I10
tp3326
I1
tp3327
F0.7992627074643821
s((I40
I20
I-4
tp3328
I0
tp3329
F0.8028309087080661
s((I360
I60
I-8
tp3330
I1
tp3331
F0.0
s(g2960
I1
tp3332
F0.0
s((I400
I20
I-2
tp3333
I1
tp3334
F0.0
s((I140
I-40
I-9
tp3335
I0
tp3336
F0.8316388446793685
s((I400
I40
I-5
tp3337
I1
tp3338
F0.0
s((I260
I-20
I9
tp3339
I0
tp3340
F0.8333182912034355
s(g1806
I0
tp3341
F0.8332869990570095
s((I380
I60
I0
tp3342
I1
tp3343
F0.0
s(g2542
I0
tp3344
F-1.1030279814404662
s((I380
I40
I-2
tp3345
I0
tp3346
F0.8319833756147592
s(g2546
I1
tp3347
F0.0
s(g2549
I0
tp3348
F0.39046583333333335
s((I40
I-80
I-6
tp3349
I1
tp3350
F-0.8598706865817354
s(g2552
I1
tp3351
F0.0
s((I80
I80
I0
tp3352
I1
tp3353
F0.0
s((I20
I60
I-7
tp3354
I0
tp3355
F0.7427009836408303
s((I0
I60
I-9
tp3356
I0
tp3357
F-1.6661224246101463
s((I180
I-20
I1
tp3358
I0
tp3359
F0.4279505533333333
s(g777
I0
tp3360
F0.7754320058169379
s(g2557
I1
tp3361
F0.0
s((I320
I120
I-7
tp3362
I0
tp3363
F0.708254470585834
s((I280
I0
I3
tp3364
I0
tp3365
F0.8332862826731066
s(g2560
I0
tp3366
F0.4751891422350252
s(g2617
I1
tp3367
F0.0
s((I100
I60
I0
tp3368
I0
tp3369
F0.39046583333333335
s(g2566
I0
tp3370
F0.8149421847492341
s((I200
I220
I8
tp3371
I1
tp3372
F0.0
s(g2571
I0
tp3373
F0.8332576054338631
s((I280
I40
I0
tp3374
I1
tp3375
F0.0
s(g2626
I1
tp3376
F0.0
s((I40
I20
I-2
tp3377
I1
tp3378
F0.0
s(g3204
I1
tp3379
F0.0
s(g2575
I1
tp3380
F0.0
s((I60
I40
I5
tp3381
I0
tp3382
F0.41305652652098024
s((I80
I120
I3
tp3383
I0
tp3384
F0.7926431989861975
s(g2581
I1
tp3385
F0.0
s((I300
I-140
I10
tp3386
I1
tp3387
F0.0
s((I240
I-60
I-7
tp3388
I0
tp3389
F0.8331885517438525
s(g2075
I1
tp3390
F0.0
s(g2588
I0
tp3391
F0.8057550541316274
s((I180
I-20
I2
tp3392
I1
tp3393
F0.0
s(g2590
I0
tp3394
F0.8949416157833698
s(g507
I1
tp3395
F0.0
s(g2593
I0
tp3396
F0.833042385415108
s((I-20
I60
I2
tp3397
I1
tp3398
F-5.960693352669633
s(g2595
I1
tp3399
F0.39046583333333335
s((I100
I-40
I1
tp3400
I0
tp3401
F0.7230722771829577
s(g2600
I1
tp3402
F-5.2611344939259554
s(g835
I0
tp3403
F0.14018406240459477
s(g1515
I0
tp3404
F0.8330946371007724
s(g1558
I0
tp3405
F0.8331540224771936
s(g2606
I1
tp3406
F0.0
s((I120
I0
I-3
tp3407
I0
tp3408
F0.8170064984372183
s(g2608
I0
tp3409
F0.8331505450053691
s((I300
I-80
I-6
tp3410
I1
tp3411
F0.0
s(g2611
I1
tp3412
F0.0
s(g2604
I1
tp3413
F0.0
s((I60
I20
I-7
tp3414
I0
tp3415
F0.6508395755888419
s(g2622
I1
tp3416
F-5.585835612487925
s((I380
I20
I-4
tp3417
I1
tp3418
F0.0
s(g2630
I0
tp3419
F0.8333272735293655
s((I60
I-20
I-3
tp3420
I0
tp3421
F0.7898603795016514
s(g2632
I0
tp3422
F0.8332360532857839
s(g2635
I0
tp3423
F0.48832633281250004
s((I380
I20
I1
tp3424
I0
tp3425
F0.8332695600248525
s(g2640
I1
tp3426
F0.0
s((I300
I-60
I10
tp3427
I1
tp3428
F0.0
s((I340
I80
I-9
tp3429
I0
tp3430
F0.7179021492305172
s(g2648
I1
tp3431
F0.0
s((I120
I20
I10
tp3432
I0
tp3433
F0.4865932161458334
s(g2653
I1
tp3434
F0.0
s(g1651
I0
tp3435
F-2.603164711446947
s((I340
I-20
I7
tp3436
I0
tp3437
F0.8330442331750747
s((I160
I-60
I9
tp3438
I0
tp3439
F-1.820939677083333
s(g2657
I0
tp3440
F0.8319078814982588
s((I340
I80
I-7
tp3441
I0
tp3442
F0.39046583333333335
s(g2659
I0
tp3443
F0.8331380618040013
s((I160
I-120
I9
tp3444
I0
tp3445
F0.8101038569346053
s(g2662
I0
tp3446
F0.8326398975119562
s((I40
I-60
I9
tp3447
I0
tp3448
F-3.9602857831330165
s(g2664
I0
tp3449
F0.8332843595530861
s((I60
I160
I5
tp3450
I0
tp3451
F0.39046583333333335
s(g2666
I1
tp3452
F0.0
s((I-20
I60
I-5
tp3453
I0
tp3454
F-0.37917363182106756
s((I60
I60
I9
tp3455
I0
tp3456
F0.8101908986364911
s(g918
I0
tp3457
F0.8244640610320684
s((I220
I-40
I-5
tp3458
I0
tp3459
F0.8331687327357913
s((I220
I-60
I-2
tp3460
I1
tp3461
F0.0
s(g2678
I0
tp3462
F0.7539887640001359
s(g2735
I0
tp3463
F-2.447916666666667
s(g2681
I0
tp3464
F0.8331572571499923
s((I380
I40
I1
tp3465
I0
tp3466
F0.8332476611891255
s(g1996
I0
tp3467
F0.6445943324629331
s(g3066
I1
tp3468
F0.0
s((I120
I-40
I1
tp3469
I0
tp3470
F0.819915831741308
s(g2686
I1
tp3471
F-2.41346819256165
s(g278
I1
tp3472
F0.0
s(g2688
I0
tp3473
F0.7872831235541613
s(g2690
I1
tp3474
F0.0
s(g2695
I0
tp3475
F0.8321145070333822
s((I80
I-120
I-9
tp3476
I1
tp3477
F0.0
s(g2697
I0
tp3478
F0.8331841406270657
s(g2669
I0
tp3479
F0.5686677106514757
s(g491
I1
tp3480
F0.0
s((I160
I-120
I10
tp3481
I1
tp3482
F0.8238977619111865
s(g2701
I0
tp3483
F0.7887262178492289
s(g2704
I1
tp3484
F0.0
s((I320
I-80
I-6
tp3485
I1
tp3486
F0.0
s(g2709
I0
tp3487
F0.8215960701461152
s(g2713
I0
tp3488
F-2.951041666666667
s(g2772
I1
tp3489
F0.0
s((I240
I-100
I-8
tp3490
I1
tp3491
F0.0
s(g2721
I0
tp3492
F0.43008902842810515
s(g1300
I0
tp3493
F0.7372104047857198
s(g2726
I1
tp3494
F0.0
s((I180
I-140
I7
tp3495
I0
tp3496
F0.45131149585020314
s(g2113
I1
tp3497
F0.0
s(g2730
I0
tp3498
F0.5528303416853261
s((I-20
I100
I-8
tp3499
I1
tp3500
F-5.800729166666667
s(g992
I1
tp3501
F0.0
s(g2733
I1
tp3502
F0.0
s(g2737
I0
tp3503
F-1.6627173561568231
s(g2739
I0
tp3504
F0.8332680630329705
s((I60
I-100
I-2
tp3505
I1
tp3506
F0.0
s((I260
I140
I5
tp3507
I1
tp3508
F0.0
s((I100
I20
I0
tp3509
I0
tp3510
F0.7251060673222312
s(g2744
I0
tp3511
F0.8331278595457863
s((I-20
I60
I-1
tp3512
I1
tp3513
F0.0
s(g2748
I1
tp3514
F0.0
s((I320
I-120
I-9
tp3515
I0
tp3516
F0.8292153849626906
s(g2752
I1
tp3517
F0.0
s(g2755
I1
tp3518
F0.0
s((I320
I-100
I-8
tp3519
I1
tp3520
F0.0
s((I-20
I40
I9
tp3521
I1
tp3522
F0.0
s(g2757
I0
tp3523
F-2.951041666666667
s(g2801
I0
tp3524
F0.6078264136714863
s(g1214
I0
tp3525
F0.7414881752697045
s(g2804
I1
tp3526
F0.0
s(g2763
I0
tp3527
F0.7749290489109399
s(g2052
I1
tp3528
F-6.6609755184173665
s(g2766
I1
tp3529
F0.0
s((I300
I-20
I-2
tp3530
I1
tp3531
F0.0
s((I40
I-40
I-9
tp3532
I0
tp3533
F0.43297554817866024
s((I100
I40
I4
tp3534
I1
tp3535
F0.0
s(g2770
I0
tp3536
F0.4279505533333333
s(g1182
I0
tp3537
F0.39046583333333335
s(g1050
I0
tp3538
F0.4274511475325
s((I320
I100
I-5
tp3539
I1
tp3540
F0.0
s((I300
I-80
I-2
tp3541
I1
tp3542
F0.0
s((I100
I-40
I-3
tp3543
I1
tp3544
F0.0
s((I380
I20
I-1
tp3545
I0
tp3546
F0.8332879980116837
s((I220
I-120
I-7
tp3547
I0
tp3548
F0.5604906662658333
s((I80
I-40
I6
tp3549
I0
tp3550
F0.6559614336384865
s(g2782
I1
tp3551
F0.0
s(g1582
I1
tp3552
F0.0
s(g2785
I0
tp3553
F-4.9368470052083335
s((I60
I80
I9
tp3554
I0
tp3555
F0.8166606354438534
s(g2788
I0
tp3556
F0.782606197384863
s((I0
I60
I-1
tp3557
I1
tp3558
F-5.602762095606016
s(g3084
I0
tp3559
F-2.689166666666667
s(g2791
I0
tp3560
F-3.1791666666666663
s((I100
I0
I4
tp3561
I1
tp3562
F0.0
s(g411
I0
tp3563
F0.8167858202305296
s(g2794
I1
tp3564
F0.0
s((I320
I-40
I-9
tp3565
I0
tp3566
F0.8332860155541808
s(g2799
I1
tp3567
F0.0
s(g2780
I0
tp3568
F0.8331641341052483
s((I320
I0
I-6
tp3569
I1
tp3570
F0.0
s((I80
I-40
I-5
tp3571
I1
tp3572
F0.0
s((I0
I40
I-5
tp3573
I0
tp3574
F0.6647417158540501
s((I100
I40
I8
tp3575
I1
tp3576
F0.0
s(g2810
I0
tp3577
F-1.828170833333333
s(g2812
I1
tp3578
F0.0
s((I420
I-20
I-9
tp3579
I0
tp3580
F0.9939400181448965
s((I100
I-100
I5
tp3581
I0
tp3582
F0.7828575023113724
s((I60
I-20
I2
tp3583
I0
tp3584
F0.28281249999999997
s(g2814
I0
tp3585
F-1.9583333333333333
s(g545
I1
tp3586
F0.0
s((I200
I-100
I2
tp3587
I1
tp3588
F0.0
s((I100
I-80
I-9
tp3589
I0
tp3590
F0.8075607400883663
s((I240
I0
I8
tp3591
I1
tp3592
F0.0
s(g2822
I0
tp3593
F0.663961030474544
s((I200
I0
I4
tp3594
I0
tp3595
F0.8329982727890703
s(g2824
I0
tp3596
F0.8333083832888142
s(g1108
I1
tp3597
F0.0
s((I0
I80
I-6
tp3598
I0
tp3599
F0.7426306100675858
s(g3432
I1
tp3600
F0.0
s((I100
I-80
I7
tp3601
I0
tp3602
F0.803063571216601
s(g1593
I1
tp3603
F0.0
s(g2831
I0
tp3604
F0.6553531651461797
s((I100
I80
I4
tp3605
I1
tp3606
F0.0
s((I80
I20
I5
tp3607
I0
tp3608
F0.7587606105038738
s((I320
I-80
I10
tp3609
I1
tp3610
F0.0
s(g2836
I0
tp3611
F0.7359190122049476
s((I80
I20
I-1
tp3612
I0
tp3613
F0.6551291403005578
s((I20
I20
I-4
tp3614
I1
tp3615
F0.0
s(g2838
I1
tp3616
F0.0
s(g2841
I0
tp3617
F0.8225058885719627
s((I20
I80
I-4
tp3618
I1
tp3619
F0.0
s((I160
I-100
I9
tp3620
I0
tp3621
F0.8238267658947038
s(g2847
I1
tp3622
F-2.4
s((I80
I-40
I-8
tp3623
I1
tp3624
F0.0
s((I0
I40
I4
tp3625
I0
tp3626
F0.41810737906327167
s((I100
I100
I-8
tp3627
I1
tp3628
F-4.0315988
s((I100
I20
I-2
tp3629
I1
tp3630
F0.0
s(g2853
I1
tp3631
F0.0
s(g2855
I1
tp3632
F0.0
s(g2908
I0
tp3633
F0.8332529279475869
s(g2858
I1
tp3634
F0.0
s((I100
I-60
I4
tp3635
I1
tp3636
F0.0
s(g2864
I0
tp3637
F0.8084152428291287
s(g519
I1
tp3638
F0.0
s(g2868
I0
tp3639
F0.7264627419585314
s((I160
I-20
I6
tp3640
I1
tp3641
F0.0
s(g2870
I0
tp3642
F0.8281507599888656
s(g2873
I0
tp3643
F0.8332847658967286
s((I400
I0
I-5
tp3644
I0
tp3645
F0.8337164051582817
s((I0
I40
I0
tp3646
I1
tp3647
F-1.098879234333785
s((I80
I-20
I-5
tp3648
I1
tp3649
F0.0
s((I60
I-20
I-7
tp3650
I0
tp3651
F0.7693226642874712
s(g561
I0
tp3652
F-2.4
s(g2883
I0
tp3653
F-1.6016086444760682
s((I-20
I80
I-6
tp3654
I1
tp3655
F-6.117130581904167
s(g2936
I1
tp3656
F0.0
s((I0
I20
I3
tp3657
I0
tp3658
F-1.8390257462505741
s((I100
I140
I0
tp3659
I1
tp3660
F0.0
s((I320
I140
I-7
tp3661
I0
tp3662
F0.0
s((I140
I40
I10
tp3663
I0
tp3664
F0.4137308333333334
s((I-40
I60
I0
tp3665
I1
tp3666
F0.0
s((I100
I-40
I2
tp3667
I1
tp3668
F0.0
s(g2891
I0
tp3669
F0.43890446614583334
s((I420
I20
I-7
tp3670
I0
tp3671
F0.8531956473832614
s(g2894
I0
tp3672
F0.6783640903906398
s((I60
I-100
I-6
tp3673
I1
tp3674
F0.0
s((I80
I-120
I-8
tp3675
I1
tp3676
F0.0
s(g2898
I0
tp3677
F0.3930883940120157
s(g2901
I0
tp3678
F0.7422161359870063
s((I80
I-160
I-9
tp3679
I0
tp3680
F0.49930955489842543
s(g2903
I1
tp3681
F0.0
s(g2905
I0
tp3682
F0.8104374428718019
s((I280
I-80
I-2
tp3683
I1
tp3684
F0.0
s((I400
I100
I-2
tp3685
I1
tp3686
F0.0
s((I140
I220
I-8
tp3687
I1
tp3688
F0.0
s((I180
I20
I3
tp3689
I1
tp3690
F0.0
s((I180
I-120
I3
tp3691
I1
tp3692
F0.0
s((I0
I60
I3
tp3693
I0
tp3694
F0.39810425614308026
s(g2915
I1
tp3695
F0.0
s(g2972
I1
tp3696
F0.0
s(g2918
I0
tp3697
F-2.951041666666667
s((I0
I60
I-7
tp3698
I0
tp3699
F-5.37640676922703
s(g1208
I0
tp3700
F0.7051045348366606
s((I160
I-140
I10
tp3701
I0
tp3702
F-2.9308854166666665
s((I400
I-20
I-6
tp3703
I1
tp3704
F0.8184861571234814
s(g2922
I1
tp3705
F0.0
s((I80
I60
I3
tp3706
I0
tp3707
F0.6839364794887169
s(g2924
I1
tp3708
F0.0
s((I20
I-60
I0
tp3709
I1
tp3710
F0.0
s(g2926
I0
tp3711
F0.8950844295856941
s((I100
I120
I-6
tp3712
I1
tp3713
F-2.4
s(g1509
I1
tp3714
F0.0
s(g2983
I1
tp3715
F0.0
s((I400
I0
I-2
tp3716
I1
tp3717
F0.0
s(g2932
I1
tp3718
F0.0
s((I80
I-20
I1
tp3719
I0
tp3720
F0.39046583333333335
s(g2995
I1
tp3721
F0.0
s((I100
I120
I3
tp3722
I0
tp3723
F0.8118774601222789
s(g2941
I1
tp3724
F0.0
s((I400
I20
I-4
tp3725
I1
tp3726
F0.0
s(g2944
I0
tp3727
F0.833274098752065
s(g3601
I1
tp3728
F0.0
s((I-20
I0
I5
tp3729
I0
tp3730
F-2.4
s(g2946
I0
tp3731
F0.8219185235200792
s(g2948
I1
tp3732
F0.0
s(g2950
I0
tp3733
F-1.9208333333333334
s((I20
I-100
I3
tp3734
I0
tp3735
F-1.9583333333333333
s((I300
I-80
I-3
tp3736
I0
tp3737
F0.8153028630966639
s((I-40
I100
I-8
tp3738
I0
tp3739
F-2.4
s(g2954
I0
tp3740
F0.6824546776307463
s((I0
I60
I-6
tp3741
I1
tp3742
F-5.880022081361642
s(g3013
I1
tp3743
F0.0
s((I260
I220
I-8
tp3744
I0
tp3745
F0.4799199938866667
s(g2962
I1
tp3746
F0.0
s((I300
I-20
I-3
tp3747
I0
tp3748
F0.8332518109366145
s(g2965
I0
tp3749
F0.7837525249886467
s((I240
I-80
I6
tp3750
I1
tp3751
F0.0
s(g2967
I0
tp3752
F-3.010733670936692
s(g2969
I0
tp3753
F0.825963717198396
s((I420
I-60
I-8
tp3754
I1
tp3755
F0.0
s((I40
I0
I-2
tp3756
I0
tp3757
F-1.8870833333333332
s(g3023
I1
tp3758
F0.0
s(g2974
I0
tp3759
F0.295906172155997
s(g3027
I0
tp3760
F0.4285377083333334
s((I60
I-100
I-7
tp3761
I1
tp3762
F0.0
s((I20
I40
I-3
tp3763
I0
tp3764
F0.08618727372600277
s(g2761
I1
tp3765
F0.0
s((I140
I-40
I-5
tp3766
I0
tp3767
F0.8316658802274393
s((I-40
I100
I-5
tp3768
I1
tp3769
F0.0
s(g2979
I1
tp3770
F0.0
s((I40
I-40
I-4
tp3771
I1
tp3772
F0.0
s(g2981
I1
tp3773
F0.0
s(g2985
I1
tp3774
F0.0
s((I20
I-60
I7
tp3775
I1
tp3776
F0.0
s(g2988
I1
tp3777
F0.0
s((I40
I80
I-9
tp3778
I0
tp3779
F-1.8445062760416664
s((I220
I-100
I-8
tp3780
I1
tp3781
F0.0
s(g2991
I0
tp3782
F0.8296072922114827
s(g2993
I0
tp3783
F0.7965388510018093
s((I200
I240
I5
tp3784
I1
tp3785
F0.0
s((I20
I0
I-9
tp3786
I1
tp3787
F-3.8323963420506706
s(g2997
I1
tp3788
F0.0
s((I300
I-20
I-1
tp3789
I1
tp3790
F0.0
s((I-40
I40
I4
tp3791
I1
tp3792
F0.0
s((I40
I-40
I2
tp3793
I1
tp3794
F-1.8293708333333334
s(g3001
I0
tp3795
F0.30831165676040573
s(g3004
I0
tp3796
F-1.9583333333333333
s(g3006
I0
tp3797
F0.5670911007124999
s((I320
I0
I-9
tp3798
I0
tp3799
F0.8332429646056707
s(g3008
I1
tp3800
F0.0
s((I260
I-100
I6
tp3801
I1
tp3802
F0.0
s((I40
I60
I-8
tp3803
I1
tp3804
F0.0
s(g3011
I1
tp3805
F0.0
s((I160
I-40
I7
tp3806
I0
tp3807
F-1.7940942166666667
s(g2544
I1
tp3808
F0.0
s((I300
I140
I-4
tp3809
I1
tp3810
F0.0
s(g1577
I0
tp3811
F0.7081313869912544
s(g3017
I0
tp3812
F0.8317854373014195
s(g3061
I1
tp3813
F0.0
s((I60
I-60
I10
tp3814
I1
tp3815
F0.0
s(g3030
I1
tp3816
F0.0
s(g3021
I0
tp3817
F0.8145270516203832
s((I400
I-40
I-4
tp3818
I1
tp3819
F0.0
s((I300
I-60
I-2
tp3820
I1
tp3821
F0.0
s((I60
I120
I3
tp3822
I0
tp3823
F0.39046583333333335
s(g473
I1
tp3824
F0.0
s(g3032
I0
tp3825
F0.7901138995148581
s((I140
I-120
I-5
tp3826
I0
tp3827
F0.5471681640903489
s(g3738
I1
tp3828
F0.0
s(g3087
I0
tp3829
F0.7215443305905405
s(g3035
I0
tp3830
F0.8330240805314448
s((I60
I-80
I-6
tp3831
I0
tp3832
F-0.6660116295725158
s((I100
I-100
I3
tp3833
I1
tp3834
F0.0
s((I40
I0
I2
tp3835
I1
tp3836
F0.7026409210471996
s(g3038
I1
tp3837
F0.0
s((I120
I260
I1
tp3838
I0
tp3839
F0.39046583333333335
s((I100
I-100
I7
tp3840
I1
tp3841
F0.0
s(g300
I1
tp3842
F0.0
s(g1463
I0
tp3843
F-1.8567083333333336
s((I160
I-40
I8
tp3844
I1
tp3845
F0.7998920378453288
s(g3044
I1
tp3846
F-5.239987973861984
s(g1315
I0
tp3847
F0.39046583333333335
s((I40
I40
I-6
tp3848
I1
tp3849
F0.0
s((I20
I40
I-5
tp3850
I0
tp3851
F0.40827648279524953
s(g3049
I1
tp3852
F0.0
s((I260
I-120
I9
tp3853
I0
tp3854
F0.8196631860322143
s((I340
I-60
I10
tp3855
I0
tp3856
F0.8324460914317848
s((I80
I120
I-9
tp3857
I0
tp3858
F-2.4
s(g3549
I1
tp3859
F0.0
s((I180
I-60
I6
tp3860
I1
tp3861
F0.0
s((I60
I40
I-3
tp3862
I0
tp3863
F0.39046583333333335
s(g3055
I0
tp3864
F-2.4
s(g779
I1
tp3865
F0.0
s((I80
I100
I10
tp3866
I1
tp3867
F0.0
s(g3120
I1
tp3868
F0.0
s(g3058
I0
tp3869
F0.832964436292492
s(g789
I0
tp3870
F0.8331587154585778
s((I120
I-100
I4
tp3871
I1
tp3872
F0.0
s(g3070
I1
tp3873
F0.0
s((I-20
I60
I-7
tp3874
I0
tp3875
F-1.7198806733278862
s(g3075
I0
tp3876
F0.832314893482429
s((I40
I-100
I3
tp3877
I0
tp3878
F-1.8567083333333336
s(g3077
I0
tp3879
F-1.9208333333333334
s(g3080
I0
tp3880
F-0.9393297426652754
s(g3082
I1
tp3881
F0.0
s((I300
I40
I-2
tp3882
I1
tp3883
F0.0
s(g3091
I0
tp3884
F0.8204741743943869
s(g3094
I1
tp3885
F0.0
s(g669
I0
tp3886
F0.8169037145463837
s((I60
I40
I-2
tp3887
I1
tp3888
F0.0
s(g3099
I1
tp3889
F0.0
s((I120
I0
I0
tp3890
I1
tp3891
F0.0
s(g3102
I1
tp3892
F0.0
s((I320
I-40
I-6
tp3893
I1
tp3894
F0.0
s(g3106
I0
tp3895
F-2.4
s(g1629
I1
tp3896
F0.0
s(g1904
I0
tp3897
F0.6691201181171151
s(g3109
I0
tp3898
F-3.8183333333333334
s((I20
I-20
I-7
tp3899
I0
tp3900
F-1.9208333333333334
s(g3111
I1
tp3901
F0.39046583333333335
s(g3161
I1
tp3902
F0.0
s(g3113
I1
tp3903
F0.0
s((I100
I20
I3
tp3904
I1
tp3905
F0.0
s(g3115
I0
tp3906
F0.8332161821727353
s(g3168
I1
tp3907
F0.0
s(g3118
I1
tp3908
F0.0
s(g891
I0
tp3909
F0.6553224932137823
s(g861
I1
tp3910
F0.0
s(g3122
I1
tp3911
F0.0
s(g3125
I1
tp3912
F-4.100725514029474
s(g3441
I1
tp3913
F0.0
s(g3129
I0
tp3914
F-2.8232797288447387
s(g3131
I1
tp3915
F0.0
s((I380
I-20
I3
tp3916
I0
tp3917
F0.8246750884813989
s(g740
I1
tp3918
F0.0
s(g1636
I0
tp3919
F0.39046583333333335
s((I240
I0
I-6
tp3920
I1
tp3921
F0.0
s((I160
I-80
I-8
tp3922
I1
tp3923
F0.0
s(g3138
I0
tp3924
F0.8326431223530764
s(g2435
I0
tp3925
F0.7755611261845208
s((I40
I-20
I3
tp3926
I0
tp3927
F-2.611541666666667
s(g3141
I0
tp3928
F-1.7634665755208332
s(g3143
I0
tp3929
F0.8032058938721762
s(g104
I0
tp3930
F0.7583751638712322
s(g3145
I1
tp3931
F0.0
s(g3149
I0
tp3932
F-1.6993691490615481
s(g1054
I1
tp3933
F0.0
s((I220
I-80
I-6
tp3934
I1
tp3935
F0.0
s((I80
I0
I-1
tp3936
I0
tp3937
F0.53561837450292
s((I60
I-120
I-4
tp3938
I1
tp3939
F0.0
s((I300
I-100
I10
tp3940
I1
tp3941
F0.0
s(g1335
I0
tp3942
F0.5122026320200348
s(g1160
I0
tp3943
F0.4506282028278765
s(g3155
I0
tp3944
F0.7778140069994668
s((I280
I-80
I0
tp3945
I1
tp3946
F0.0
s((I140
I-60
I10
tp3947
I0
tp3948
F0.43890446614583334
s((I60
I-100
I10
tp3949
I1
tp3950
F0.42347381998226363
s(g3159
I1
tp3951
F0.0
s(g1740
I1
tp3952
F0.0
s(g3164
I1
tp3953
F0.0
s((I60
I-100
I-3
tp3954
I1
tp3955
F-0.949395131952051
s(g1443
I1
tp3956
F0.5979753862658334
s(g3176
I0
tp3957
F0.8333144802088943
s((I-20
I40
I1
tp3958
I0
tp3959
F0.4628533642493587
s(g3178
I1
tp3960
F0.0
s(g973
I0
tp3961
F0.6342606315767114
s(g1235
I0
tp3962
F0.8331559638691435
s((I180
I0
I5
tp3963
I1
tp3964
F0.0
s(g1253
I0
tp3965
F0.39046583333333335
s(g3188
I1
tp3966
F0.0
s((I40
I-100
I-1
tp3967
I0
tp3968
F-4.253298912526981
s((I220
I260
I1
tp3969
I0
tp3970
F0.40859146357916665
s((I280
I-140
I10
tp3971
I1
tp3972
F0.0
s(g3194
I1
tp3973
F0.0
s((I20
I-60
I8
tp3974
I0
tp3975
F-1.9583333333333333
s(g3198
I0
tp3976
F0.4667542104868547
s((I80
I160
I1
tp3977
I0
tp3978
F0.39046583333333335
s((I300
I120
I0
tp3979
I0
tp3980
F0.39046583333333335
s(g1399
I0
tp3981
F0.4717827688739046
s(g3206
I0
tp3982
F0.8212893419890075
s((I-40
I40
I-9
tp3983
I0
tp3984
F-0.4372728715079909
s((I160
I-100
I-9
tp3985
I0
tp3986
F0.8245461708928676
s((I100
I20
I-7
tp3987
I0
tp3988
F-2.4
s(g3211
I0
tp3989
F0.7096186734201457
s(g3219
I0
tp3990
F0.790507531875219
s(g3264
I0
tp3991
F0.7999994057085383
s((I180
I-80
I7
tp3992
I0
tp3993
F0.8244045819060807
s((I260
I120
I8
tp3994
I1
tp3995
F0.0
s(g3224
I0
tp3996
F0.7232113594710952
s((I220
I260
I2
tp3997
I1
tp3998
F0.0
s(g3226
I0
tp3999
F0.8332215911229636
s((I20
I20
I8
tp4000
I1
tp4001
F0.0
s(g3229
I0
tp4002
F-1.853708333333333
s((I100
I100
I6
tp4003
I0
tp4004
F0.7862187090827266
s(g1537
I0
tp4005
F0.8252431817468897
s(g1658
I0
tp4006
F0.8319180451645811
s((I80
I160
I2
tp4007
I1
tp4008
F0.0
s(g3667
I0
tp4009
F0.7478117017882654
s((I100
I-80
I9
tp4010
I0
tp4011
F0.8118298240708681
s(g3239
I0
tp4012
F0.8333039204286891
s(g3241
I0
tp4013
F0.48884390066197153
s(g2586
I0
tp4014
F0.8333223519403401
s(g3244
I0
tp4015
F-2.7922547738952597
s(g3246
I1
tp4016
F0.0
s((I280
I-60
I1
tp4017
I0
tp4018
F0.8314715051499382
s(g3249
I0
tp4019
F0.8332519787475492
s((I0
I80
I3
tp4020
I0
tp4021
F0.32788431368887716
s(g3285
I1
tp4022
F0.6685020112889033
s((I100
I-40
I-9
tp4023
I0
tp4024
F0.8232164346976607
s(g114
I1
tp4025
F0.0
s(g1032
I1
tp4026
F0.0
s((I100
I-20
I2
tp4027
I1
tp4028
F0.0
s(g3257
I0
tp4029
F0.8306842300033793
s((I60
I-20
I8
tp4030
I1
tp4031
F0.0
s((I260
I60
I10
tp4032
I1
tp4033
F0.0
s((I160
I-20
I-9
tp4034
I0
tp4035
F0.6614192229971283
s(g3306
I1
tp4036
F0.0
s(g1046
I0
tp4037
F0.552959507895433
s(g2510
I1
tp4038
F0.0
s((I100
I-40
I7
tp4039
I0
tp4040
F0.8140703156713123
s((I20
I0
I-8
tp4041
I1
tp4042
F-3.5715630087173373
s((I260
I-20
I10
tp4043
I1
tp4044
F0.0
s((I160
I-60
I-7
tp4045
I0
tp4046
F0.8320139160517477
s((I20
I40
I-2
tp4047
I0
tp4048
F0.003741854726281673
s((I240
I-140
I10
tp4049
I1
tp4050
F0.0
s(g3271
I0
tp4051
F0.8169387659063114
s(g3276
I1
tp4052
F0.0
s((I20
I60
I-6
tp4053
I1
tp4054
F0.0
s(g3279
I1
tp4055
F0.0
s(g471
I1
tp4056
F0.0
s((I240
I-100
I6
tp4057
I1
tp4058
F0.0
s(g3337
I0
tp4059
F0.833833409013931
s(g2597
I1
tp4060
F0.0
s(g3288
I1
tp4061
F0.0
s(g3345
I1
tp4062
F0.0
s(g3291
I0
tp4063
F0.5402330914611955
s((I60
I80
I5
tp4064
I1
tp4065
F0.0
s(g1878
I0
tp4066
F-2.4
s((I20
I80
I-2
tp4067
I1
tp4068
F0.0
s(g3507
I0
tp4069
F0.7273750536656685
s(g3297
I1
tp4070
F0.0
s((I60
I40
I6
tp4071
I1
tp4072
F0.0
s(g3300
I1
tp4073
F-3.82436789527412
s((I100
I40
I1
tp4074
I0
tp4075
F0.7424612790543483
s(g3303
I0
tp4076
F0.8333199201129358
s((I80
I120
I4
tp4077
I1
tp4078
F0.0
s(g3368
I1
tp4079
F0.0
s(g3308
I0
tp4080
F0.5859802758658335
s(g3310
I1
tp4081
F0.0
s((I420
I20
I-9
tp4082
I0
tp4083
F0.994017336990165
s((I80
I-20
I-7
tp4084
I0
tp4085
F0.8246341084195863
s(g3313
I0
tp4086
F0.8323471311411746
s((I40
I60
I-9
tp4087
I0
tp4088
F0.44903570833333334
s((I-40
I100
I-9
tp4089
I0
tp4090
F-4.65
s(g3315
I0
tp4091
F-1.9208333333333334
s(g3317
I1
tp4092
F0.0
s(g3320
I0
tp4093
F0.8318769175377294
s((I140
I-80
I-3
tp4094
I1
tp4095
F0.0
s(g3324
I1
tp4096
F0.0
s((I320
I80
I-1
tp4097
I1
tp4098
F0.0
s(g3326
I0
tp4099
F-1.8349662423695037
s((I20
I-80
I2
tp4100
I1
tp4101
F0.0
s((I60
I-120
I-2
tp4102
I1
tp4103
F0.0
s((I0
I60
I1
tp4104
I0
tp4105
F0.23314708374350473
s(g3330
I0
tp4106
F0.7657023443360378
s((I220
I20
I-3
tp4107
I1
tp4108
F0.0
s(g3333
I0
tp4109
F0.8332780256388581
s((I80
I0
I-4
tp4110
I0
tp4111
F0.7460832088255943
s(g3339
I1
tp4112
F0.0
s(g2259
I1
tp4113
F0.0
s(g3342
I0
tp4114
F0.8332514524202493
s((I260
I-40
I6
tp4115
I1
tp4116
F0.0
s((I140
I-100
I-3
tp4117
I0
tp4118
F0.769250282246513
s(g3349
I0
tp4119
F-0.8937483126601626
s(g3352
I0
tp4120
F0.39046583333333335
s(g3354
I1
tp4121
F0.0
s((I80
I-20
I-6
tp4122
I1
tp4123
F0.0
s(g1689
I1
tp4124
F-1.444570873789898
s(g1135
I0
tp4125
F0.7738758718814196
s(g3356
I1
tp4126
F-6.706423071391612
s(g3358
I1
tp4127
F0.0
s(g793
I1
tp4128
F0.0
s((I380
I20
I2
tp4129
I1
tp4130
F0.0
s(g3364
I1
tp4131
F0.0
s((I40
I-120
I0
tp4132
I1
tp4133
F0.0
s(g2379
I1
tp4134
F0.0
s(g2384
I0
tp4135
F0.364775197055191
s(g2613
I0
tp4136
F0.8330529149454089
s((I100
I-20
I-9
tp4137
I0
tp4138
F0.6096674727312923
s(g3371
I0
tp4139
F0.4950021126041667
s(g873
I1
tp4140
F0.833286047954914
s(g1638
I0
tp4141
F0.5331005695483466
s(g3374
I0
tp4142
F0.8333077042570741
s((I360
I60
I8
tp4143
I0
tp4144
F0.8331376109813576
s((I80
I100
I1
tp4145
I0
tp4146
F0.4516732247681417
s(g3377
I0
tp4147
F0.7917961450933534
s((I20
I240
I-3
tp4148
I0
tp4149
F-1.9208333333333334
s((I80
I-80
I-9
tp4150
I0
tp4151
F0.79251609873864
s((I420
I60
I-8
tp4152
I1
tp4153
F0.0
s(g3381
I1
tp4154
F0.0
s((I140
I-100
I-2
tp4155
I1
tp4156
F0.0
s((I120
I20
I0
tp4157
I1
tp4158
F0.0
s((I40
I-20
I-1
tp4159
I0
tp4160
F0.7933654096924094
s(g3383
I1
tp4161
F0.0
s(g3543
I0
tp4162
F0.5115102416666667
s((I40
I-60
I10
tp4163
I1
tp4164
F-4.79949835405198
s(g3386
I0
tp4165
F-2.9308854166666665
s(g3388
I1
tp4166
F0.0
s((I180
I140
I10
tp4167
I1
tp4168
F0.0
s((I40
I-60
I-4
tp4169
I1
tp4170
F-6.002994029343531
s((I360
I-40
I7
tp4171
I0
tp4172
F0.8268514303982326
s(g3392
I0
tp4173
F0.7271291130508428
s((I20
I-60
I-4
tp4174
I1
tp4175
F-5.820769052748364
s((I60
I60
I10
tp4176
I1
tp4177
F0.0
s(g120
I0
tp4178
F0.7555700978962487
s(g3397
I0
tp4179
F-0.2855868309405221
s(g1093
I1
tp4180
F0.0
s((I220
I20
I10
tp4181
I0
tp4182
F0.772146520463488
s((I380
I40
I2
tp4183
I1
tp4184
F0.0
s((I360
I20
I5
tp4185
I0
tp4186
F0.8332516135268198
s(g3400
I1
tp4187
F0.0
s((I120
I-40
I2
tp4188
I1
tp4189
F0.0
s(g2628
I0
tp4190
F-3.240285093842072
s((I60
I120
I4
tp4191
I1
tp4192
F0.0
s(g2638
I1
tp4193
F0.0
s((I80
I100
I2
tp4194
I1
tp4195
F0.0
s(g3407
I1
tp4196
F0.0
s(g3410
I0
tp4197
F0.831414499888012
s(g2624
I0
tp4198
F0.54239452722
s(g2620
I1
tp4199
F0.0
s(g3414
I1
tp4200
F0.0
s((I360
I60
I5
tp4201
I0
tp4202
F0.83332031685147
s((I180
I-100
I7
tp4203
I0
tp4204
F0.8243248171169185
s(g1223
I1
tp4205
F0.0
s((I100
I-60
I9
tp4206
I0
tp4207
F0.7973107567793557
s(g3417
I0
tp4208
F0.832824161438251
s((I200
I20
I-3
tp4209
I0
tp4210
F0.5286772603427832
s(g3420
I1
tp4211
F0.0
s(g3424
I1
tp4212
F0.0
s(g1972
I0
tp4213
F0.4040602917866667
s(g3476
I0
tp4214
F0.480295486720114
s((I360
I20
I6
tp4215
I1
tp4216
F0.0
s((I-40
I60
I5
tp4217
I0
tp4218
F0.3969056197573695
s((I100
I-20
I-2
tp4219
I0
tp4220
F0.39046583333333335
s(g3427
I0
tp4221
F-3.4310416666666668
s(g3429
I1
tp4222
F0.0
s((I180
I-40
I9
tp4223
I0
tp4224
F0.8325568592526749
s((I300
I-120
I-9
tp4225
I0
tp4226
F0.8020165466928393
s((I80
I40
I1
tp4227
I1
tp4228
F0.0
s(g2880
I0
tp4229
F0.627212907838139
s(g3789
I0
tp4230
F0.8332175468671634
s(g3436
I1
tp4231
F0.0
s((I400
I-20
I-8
tp4232
I1
tp4233
F0.0
s(g3438
I1
tp4234
F0.7875788004036808
s((I360
I60
I6
tp4235
I1
tp4236
F0.0
s(g2577
I1
tp4237
F0.0
s(g3444
I1
tp4238
F0.0
s(g150
I1
tp4239
F0.0
s(g3447
I1
tp4240
F0.0
s(g3450
I1
tp4241
F0.0
s((I280
I20
I3
tp4242
I0
tp4243
F0.8333138805006576
s(g3453
I1
tp4244
F-5.516537567038391
s(g3455
I1
tp4245
F0.0
s((I20
I-120
I10
tp4246
I1
tp4247
F0.0
s(g3458
I1
tp4248
F0.0
s((I60
I80
I8
tp4249
I1
tp4250
F0.0
s((I100
I-80
I8
tp4251
I0
tp4252
F-2.2047670833333335
s(g3460
I0
tp4253
F0.8304480315915495
s((I-40
I80
I-7
tp4254
I0
tp4255
F-3.528973102214165
s(g3465
I1
tp4256
F0.0
s((I360
I20
I3
tp4257
I0
tp4258
F0.832537540360694
s(g3509
I1
tp4259
F0.0
s(g3469
I1
tp4260
F0.0
s(g620
I1
tp4261
F-2.4
s((I260
I240
I-7
tp4262
I0
tp4263
F0.43944625793250003
s((I-40
I60
I4
tp4264
I1
tp4265
F0.0
s((I260
I-20
I7
tp4266
I0
tp4267
F0.8332846934996119
s(g1777
I1
tp4268
F0.0
s(g3521
I0
tp4269
F-1.8795833333333336
s(g3127
I0
tp4270
F-4.986536831296053
s((I200
I-40
I3
tp4271
I0
tp4272
F0.833108195792017
s(g3481
I0
tp4273
F-2.8957959635416666
s((I380
I0
I3
tp4274
I0
tp4275
F0.8330343837756198
s((I420
I0
I-7
tp4276
I0
tp4277
F0.8531757580897238
s((I220
I-120
I-6
tp4278
I1
tp4279
F0.0
s(g3485
I0
tp4280
F0.8267871766909858
s((I280
I180
I-8
tp4281
I1
tp4282
F0.0
s((I280
I20
I-2
tp4283
I1
tp4284
F0.0
s((I60
I80
I6
tp4285
I0
tp4286
F0.4503504405431771
s(g1267
I0
tp4287
F0.8027778581866422
s((I100
I-60
I-9
tp4288
I0
tp4289
F0.7748721485147052
s(g3216
I1
tp4290
F0.0
s((I260
I-60
I8
tp4291
I1
tp4292
F0.0
s(g3490
I0
tp4293
F0.830634998096845
s((I160
I-180
I10
tp4294
I1
tp4295
F0.0
s(g3709
I0
tp4296
F-2.4
s(g1271
I0
tp4297
F0.39046583333333335
s((I340
I-40
I9
tp4298
I0
tp4299
F0.8328310638777148
s(g1858
I0
tp4300
F0.39046583333333335
s(g3495
I1
tp4301
F0.0
s(g3539
I0
tp4302
F0.39046583333333335
s((I40
I-80
I10
tp4303
I1
tp4304
F0.15227635416666666
s((I320
I-40
I-8
tp4305
I1
tp4306
F0.0
s(g1801
I1
tp4307
F0.0
s(g1716
I1
tp4308
F0.0
s(g3499
I0
tp4309
F-5.380729166666667
s((I100
I240
I4
tp4310
I0
tp4311
F0.39046583333333335
s((I420
I40
I-7
tp4312
I0
tp4313
F0.8532164664770396
s((I300
I140
I-2
tp4314
I0
tp4315
F0.7082799273582168
s((I0
I40
I-4
tp4316
I1
tp4317
F0.0
s((I380
I80
I-1
tp4318
I1
tp4319
F0.0
s((I300
I0
I-4
tp4320
I1
tp4321
F0.0
s(g2642
I1
tp4322
F0.0
s(g3512
I0
tp4323
F0.5388163571412838
s(g708
I0
tp4324
F0.3920651813866667
s(g3515
I1
tp4325
F0.0
s(g3519
I0
tp4326
F0.8252398866223446
s(g3545
I1
tp4327
F0.0
s((I-40
I60
I-7
tp4328
I0
tp4329
F-1.9058636529753812
s(g2091
I1
tp4330
F0.0
s(g487
I1
tp4331
F-0.09116692883319581
s(g3532
I1
tp4332
F-6.335641628900297
s((I80
I-80
I9
tp4333
I0
tp4334
F0.48093599654936936
s(g3534
I0
tp4335
F0.7582577211108088
s((I80
I-100
I7
tp4336
I0
tp4337
F0.5638485135370427
s(g3583
I1
tp4338
F0.0
s((I120
I0
I10
tp4339
I1
tp4340
F0.0
s((I60
I40
I0
tp4341
I1
tp4342
F0.0
s((I20
I20
I0
tp4343
I1
tp4344
F0.8085815674869168
s(g3547
I1
tp4345
F0.0
s(g3594
I1
tp4346
F0.0
s((I100
I80
I-8
tp4347
I1
tp4348
F-2.662916666666667
s(g3554
I1
tp4349
F0.0
s(g2163
I1
tp4350
F0.0
s(g3561
I0
tp4351
F0.800237111361445
s(g2165
I0
tp4352
F0.8185540228032382
s(g3565
I1
tp4353
F0.0
s(g3612
I1
tp4354
F0.0
s(g1351
I1
tp4355
F0.39046583333333335
s(g3703
I0
tp4356
F0.0
s((I100
I100
I3
tp4357
I0
tp4358
F0.8134374308965175
s(g3569
I0
tp4359
F0.8333277934057017
s((I100
I-20
I10
tp4360
I1
tp4361
F0.0
s(g3573
I1
tp4362
F0.0
s(g3575
I0
tp4363
F0.4026365943121775
s(g1890
I0
tp4364
F0.39046583333333335
s(g3579
I1
tp4365
F0.0
s((I400
I0
I-4
tp4366
I1
tp4367
F0.0
s((I20
I-40
I-5
tp4368
I0
tp4369
F-4.280325520833333
s(g4171
I1
tp4370
F0.0
s(g4159
I1
tp4371
F-3.021918252158898
s(g3587
I0
tp4372
F0.39046583333333335
s((I300
I-60
I-1
tp4373
I0
tp4374
F0.8117392583031086
s(g3591
I0
tp4375
F0.8332467482256898
s((I0
I40
I-9
tp4376
I0
tp4377
F-0.413372345197495
s(g1424
I1
tp4378
F-0.3883649995558938
s((I0
I60
I-8
tp4379
I1
tp4380
F-5.607083333330099
s(g3945
I0
tp4381
F0.8288813170170004
s((I320
I100
I-4
tp4382
I0
tp4383
F0.39046583333333335
s(g726
I1
tp4384
F0.0
s((I300
I-20
I-5
tp4385
I0
tp4386
F0.8332563780825055
s(g4215
I0
tp4387
F0.8332916511872122
s(g3605
I0
tp4388
F0.816376945382667
s(g3607
I1
tp4389
F0.0
s(g3609
I0
tp4390
F0.8315578385475841
s(g3268
I1
tp4391
F0.0
s(g3614
I0
tp4392
F0.21155705380887838
s((I40
I60
I10
tp4393
I1
tp4394
F-2.5600008219482424
s(g1931
I1
tp4395
F0.0
s((I40
I-100
I0
tp4396
I0
tp4397
F-4.3125674554951985
s(g3073
I0
tp4398
F-0.21354207606821085
s(g3663
I1
tp4399
F0.0
s(g3618
I0
tp4400
F-1.6644975486513567
s(g3089
I0
tp4401
F-2.4
s((I80
I40
I2
tp4402
I0
tp4403
F0.39046583333333335
s((I100
I40
I-8
tp4404
I1
tp4405
F0.0
s(g3623
I0
tp4406
F0.8254413098367375
s((I40
I-20
I8
tp4407
I0
tp4408
F0.17192501879557293
s((I240
I60
I10
tp4409
I1
tp4410
F0.0
s(g3629
I0
tp4411
F0.5871486161718176
s((I100
I-40
I-7
tp4412
I0
tp4413
F0.39046583333333335
s(g2335
I0
tp4414
F0.39046583333333335
s((I300
I-20
I-4
tp4415
I1
tp4416
F0.0
s(g3635
I0
tp4417
F0.7946827398635614
s(g3689
I0
tp4418
F0.8331964289593268
s(g1059
I1
tp4419
F0.0
s((I80
I-40
I2
tp4420
I0
tp4421
F0.4541260733333333
s(g3640
I0
tp4422
F0.7284104697199678
s(g3644
I1
tp4423
F0.0
s((I300
I60
I6
tp4424
I0
tp4425
F0.7563687178406465
s(g3701
I1
tp4426
F0.7596809050204465
s(g3646
I0
tp4427
F0.09703525939305507
s((I20
I0
I-1
tp4428
I1
tp4429
F0.0
s((I-20
I40
I6
tp4430
I0
tp4431
F0.4117882728576512
s((I20
I-100
I4
tp4432
I1
tp4433
F0.0
s(g1168
I1
tp4434
F0.8333145996551513
s((I0
I80
I-3
tp4435
I0
tp4436
F0.7604453633673127
s((I0
I100
I-9
tp4437
I0
tp4438
F-2.4
s(g2181
I0
tp4439
F0.779576066800507
s(g4430
I1
tp4440
F0.0
s((I100
I-80
I3
tp4441
I0
tp4442
F0.7988713694267886
s(g3654
I0
tp4443
F-5.687936706720196
s(g4341
I0
tp4444
F0.39046583333333335
s((I100
I-40
I-6
tp4445
I1
tp4446
F0.0
s(g3657
I1
tp4447
F0.0
s(g3661
I1
tp4448
F0.5394055112658334
s((I200
I20
I1
tp4449
I1
tp4450
F0.0
s(g3665
I0
tp4451
F0.7159358013522525
s((I160
I-20
I10
tp4452
I1
tp4453
F0.0
s(g3571
I0
tp4454
F0.6955351429222281
s(g3670
I1
tp4455
F0.0
s(g3673
I0
tp4456
F-0.007879648558291931
s(g2000
I1
tp4457
F-0.4170892969693925
s(g3675
I0
tp4458
F0.422268156923165
s((I140
I-80
I-2
tp4459
I1
tp4460
F0.0
s(g3679
I1
tp4461
F0.0
s((I340
I80
I-8
tp4462
I1
tp4463
F0.0
s(g3683
I0
tp4464
F0.8314862559906113
s(g3685
I0
tp4465
F0.8333075823881018
s((I100
I-40
I-2
tp4466
I1
tp4467
F0.0
s(g3687
I0
tp4468
F0.39046583333333335
s((I100
I20
I7
tp4469
I0
tp4470
F0.402178354258582
s(g8
I1
tp4471
F0.0
s(g3231
I1
tp4472
F0.0
s((I0
I80
I-2
tp4473
I1
tp4474
F0.0
s(g3693
I1
tp4475
F0.0
s(g3756
I1
tp4476
F0.7543208208262245
s(g2957
I0
tp4477
F0.4701534769069251
s((I80
I160
I5
tp4478
I1
tp4479
F0.0
s((I20
I80
I-9
tp4480
I0
tp4481
F-1.8870833333333332
s(g1756
I0
tp4482
F0.8166035170072204
s(g3698
I1
tp4483
F-5.015503884386762
s(g2022
I1
tp4484
F0.0
s(g2168
I0
tp4485
F-0.664621663725909
s(g3706
I1
tp4486
F0.0
s(g3712
I0
tp4487
F-1.8802401666666664
s((I220
I-40
I-4
tp4488
I1
tp4489
F0.0
s(g3775
I0
tp4490
F-1.9208333333333334
s(g1230
I0
tp4491
F0.7087129603278013
s(g3716
I0
tp4492
F0.8326046840158838
s(g3719
I1
tp4493
F0.0
s((I300
I160
I-7
tp4494
I1
tp4495
F0.0
s((I380
I80
I1
tp4496
I0
tp4497
F0.8332365200139387
s(g3722
I1
tp4498
F0.0
s((I260
I-120
I8
tp4499
I1
tp4500
F0.0
s(g3725
I0
tp4501
F0.833266540101397
s((I100
I20
I8
tp4502
I1
tp4503
F0.0
s(g3729
I1
tp4504
F0.0
s((I160
I-100
I10
tp4505
I1
tp4506
F0.8138249588950068
s(g2040
I1
tp4507
F0.0
s(g3734
I1
tp4508
F-3.5698333333333334
s(g1232
I1
tp4509
F0.0
s(g3736
I1
tp4510
F0.0
s((I-20
I40
I3
tp4511
I1
tp4512
F-2.0443387398499935
s((I400
I60
I-5
tp4513
I0
tp4514
F0.8338485120745969
s(g3741
I0
tp4515
F-4.749347689790103
s((I100
I0
I8
tp4516
I1
tp4517
F0.0
s((I80
I60
I10
tp4518
I0
tp4519
F0.7870110505642924
s((I-20
I60
I-2
tp4520
I0
tp4521
F0.7577156563968339
s(g3747
I1
tp4522
F0.0
s((I120
I-60
I-1
tp4523
I1
tp4524
F0.0
s(g3750
I0
tp4525
F0.8033159326163818
s(g1545
I1
tp4526
F0.0
s(g2079
I0
tp4527
F0.8329785813872419
s((I200
I-60
I0
tp4528
I1
tp4529
F0.0
s(g3754
I0
tp4530
F0.8834064564815525
s(g4466
I0
tp4531
F0.47832064583333334
s((I80
I40
I5
tp4532
I0
tp4533
F0.6948442190212754
s((I20
I100
I-3
tp4534
I1
tp4535
F0.0
s(g3763
I1
tp4536
F0.0
s((I40
I-40
I10
tp4537
I0
tp4538
F-1.4416324586860658
s(g3766
I1
tp4539
F0.0
s((I120
I120
I1
tp4540
I0
tp4541
F0.677653960506454
s((I380
I0
I-8
tp4542
I0
tp4543
F0.8090167235003463
s((I240
I-120
I8
tp4544
I1
tp4545
F0.0
s(g3771
I0
tp4546
F0.447915118539796
s(g4294
I0
tp4547
F-2.9308854166666665
s(g2073
I1
tp4548
F0.0
s((I180
I-20
I8
tp4549
I0
tp4550
F0.8323097287172664
s(g3778
I1
tp4551
F-1.8567083333333336
s(g3840
I0
tp4552
F0.734150219834727
s(g3780
I0
tp4553
F0.7593235517474672
s(g2692
I0
tp4554
F0.8069255528143695
s((I100
I40
I10
tp4555
I0
tp4556
F-2.4
s((I120
I40
I10
tp4557
I0
tp4558
F0.44095770833333336
s(g3833
I0
tp4559
F0.7970527905875264
s(g3589
I1
tp4560
F0.0
s(g3530
I0
tp4561
F0.8332337825934945
s(g3791
I0
tp4562
F0.39046583333333335
s((I100
I80
I-1
tp4563
I0
tp4564
F0.5366612554631189
s(g3793
I0
tp4565
F-0.35365994234956444
s(g3855
I1
tp4566
F0.0
s((I-20
I60
I-6
tp4567
I1
tp4568
F-5.98901911026992
s(g3798
I1
tp4569
F0.0
s((I260
I60
I9
tp4570
I0
tp4571
F0.41157083333333333
s((I100
I-20
I7
tp4572
I0
tp4573
F0.6319598210538799
s(g3801
I0
tp4574
F0.8304702877214059
s(g3803
I0
tp4575
F0.7926096365158846
s(g3806
I1
tp4576
F0.7033024504440313
s((I220
I240
I5
tp4577
I1
tp4578
F0.0
s(g2098
I1
tp4579
F0.0
s(g2699
I1
tp4580
F0.0
s(g3814
I0
tp4581
F0.5380793319048687
s((I20
I-20
I7
tp4582
I0
tp4583
F-2.4
s(g3818
I0
tp4584
F0.8098985807998129
s((I40
I40
I3
tp4585
I0
tp4586
F-1.8293708333333334
s((I300
I140
I-9
tp4587
I0
tp4588
F0.5686904487658333
s(g3820
I0
tp4589
F0.7355827454568769
s(g3958
I1
tp4590
F-4.222475106011036
s(g3822
I1
tp4591
F0.0
s((I20
I-20
I-6
tp4592
I1
tp4593
F0.0
s((I180
I-100
I5
tp4594
I0
tp4595
F0.8198573494743794
s((I380
I-20
I-1
tp4596
I1
tp4597
F0.0
s(g3826
I1
tp4598
F0.0
s(g3835
I0
tp4599
F-1.8293708333333334
s((I220
I-120
I-3
tp4600
I0
tp4601
F0.5798792472200001
s(g3838
I1
tp4602
F0.0
s((I180
I-20
I7
tp4603
I0
tp4604
F0.8327860646024071
s((I120
I-80
I0
tp4605
I1
tp4606
F0.0
s(g1615
I0
tp4607
F0.39046583333333335
s((I100
I-140
I9
tp4608
I0
tp4609
F0.7320300507026871
s(g3844
I0
tp4610
F-1.8037934083333336
s(g3784
I0
tp4611
F0.39046583333333335
s(g3850
I1
tp4612
F0.0
s(g2707
I1
tp4613
F0.0
s(g3853
I1
tp4614
F0.0
s(g3831
I1
tp4615
F0.0
s(g3857
I1
tp4616
F0.0
s(g3171
I1
tp4617
F0.0
s(g3860
I0
tp4618
F0.8329292183453934
s((I-20
I80
I-1
tp4619
I0
tp4620
F0.8197305412633271
s(g3862
I1
tp4621
F0.0
s((I-20
I80
I-9
tp4622
I0
tp4623
F-6.074308251875841
s(g2808
I1
tp4624
F0.0
s((I60
I40
I3
tp4625
I0
tp4626
F0.39046583333333335
s(g3866
I0
tp4627
F0.816558439239824
s((I420
I-20
I-8
tp4628
I1
tp4629
F0.0
s((I80
I120
I9
tp4630
I0
tp4631
F0.7982544914625559
s((I320
I-80
I-7
tp4632
I0
tp4633
F0.7784257588369712
s(g3871
I0
tp4634
F0.738447346006687
s((I140
I240
I-5
tp4635
I0
tp4636
F0.39046583333333335
s(g3874
I1
tp4637
F-5.92001095010742
s(g3877
I1
tp4638
F0.0
s(g3598
I1
tp4639
F-5.757715353468283
s(g3183
I0
tp4640
F0.4579285083333333
s((I40
I-100
I-2
tp4641
I1
tp4642
F-1.08291117946423
s(g3974
I1
tp4643
F0.0
s(g3882
I0
tp4644
F0.8329931411903301
s((I120
I-60
I3
tp4645
I0
tp4646
F0.7975084256353117
s((I60
I100
I5
tp4647
I0
tp4648
F0.39046583333333335
s(g66
I1
tp4649
F0.0
s((I200
I40
I-1
tp4650
I1
tp4651
F0.0
s(g3887
I0
tp4652
F0.39046583333333335
s(g3890
I0
tp4653
F0.823935001682216
s((I20
I260
I-1
tp4654
I1
tp4655
F-2.4
s(g3893
I0
tp4656
F0.8332327839266438
s(g3947
I1
tp4657
F0.0
s((I360
I0
I7
tp4658
I0
tp4659
F0.833242872106301
s(g2911
I1
tp4660
F0.0
s(g3899
I1
tp4661
F-4.197667277481935
s((I20
I-80
I-8
tp4662
I1
tp4663
F0.0
s((I220
I-80
I-7
tp4664
I1
tp4665
F0.0
s(g3954
I0
tp4666
F-1.2846748826041303
s(g4143
I1
tp4667
F0.0
s((I20
I-60
I-7
tp4668
I1
tp4669
F-5.634515719551323
s((I360
I40
I7
tp4670
I0
tp4671
F0.8333129317074138
s((I60
I100
I6
tp4672
I1
tp4673
F0.0
s((I400
I-40
I-7
tp4674
I0
tp4675
F0.8181521273849486
s((I100
I0
I-3
tp4676
I1
tp4677
F0.0
s(g3916
I1
tp4678
F0.0
s(g3963
I0
tp4679
F0.8329415069995454
s(g3335
I1
tp4680
F0.0
s(g3920
I0
tp4681
F0.8332890014723995
s(g4251
I1
tp4682
F0.785696210232005
s(g3922
I0
tp4683
F0.8321959136395422
s(g3926
I1
tp4684
F0.0
s((I40
I80
I9
tp4685
I0
tp4686
F0.5262256846651896
s((I100
I20
I-6
tp4687
I1
tp4688
F0.0
s(g4310
I1
tp4689
F0.0
s((I60
I-80
I9
tp4690
I1
tp4691
F0.0
s(g3934
I0
tp4692
F0.8315850818560258
s(g752
I1
tp4693
F0.0
s(g3940
I0
tp4694
F-3.078901161783854
s((I40
I-60
I-7
tp4695
I0
tp4696
F-5.130215233921444
s((I280
I200
I-5
tp4697
I0
tp4698
F0.0
s((I360
I40
I-9
tp4699
I0
tp4700
F0.7726015535298418
s((I300
I40
I-1
tp4701
I0
tp4702
F0.8332425904553389
s(g3949
I0
tp4703
F-2.1795211458333332
s((I80
I140
I5
tp4704
I0
tp4705
F0.6542774497569963
s(g4047
I1
tp4706
F0.0
s(g2236
I0
tp4707
F0.8333114734085496
s(g2239
I0
tp4708
F0.8162137394040792
s((I420
I-40
I-7
tp4709
I0
tp4710
F0.8312505997752626
s((I40
I240
I-5
tp4711
I0
tp4712
F-1.8567083333333336
s((I0
I80
I4
tp4713
I1
tp4714
F0.0
s((I40
I-20
I0
tp4715
I0
tp4716
F-3.010175075814123
s(g2071
I1
tp4717
F0.0
s((I-20
I100
I-3
tp4718
I0
tp4719
F-4.103958333333333
s(g2250
I0
tp4720
F0.8302975053312407
s((I100
I40
I7
tp4721
I0
tp4722
F0.3914258333333333
s(g4003
I1
tp4723
F0.0
s(g4494
I0
tp4724
F0.5979753862658334
s((I240
I-60
I-8
tp4725
I1
tp4726
F0.0
s((I300
I20
I-3
tp4727
I0
tp4728
F0.8333243564021373
s(g1260
I1
tp4729
F0.0
s(g2081
I0
tp4730
F0.8333231234101582
s(g3236
I1
tp4731
F0.0
s(g4264
I0
tp4732
F0.7594988278451602
s(g3969
I1
tp4733
F0.0
s(g1125
I0
tp4734
F0.8329093014362792
s((I400
I40
I-6
tp4735
I1
tp4736
F0.0
s(g3971
I0
tp4737
F-2.9116901041666665
s((I80
I60
I-3
tp4738
I0
tp4739
F0.39046583333333335
s((I280
I40
I-2
tp4740
I1
tp4741
F0.0
s(g3977
I1
tp4742
F0.0
s((I160
I-60
I-6
tp4743
I1
tp4744
F0.0
s(g1818
I1
tp4745
F0.0
s(g3983
I1
tp4746
F-4.177965130348165
s((I0
I60
I-3
tp4747
I0
tp4748
F0.7290556320354771
s((I220
I0
I-5
tp4749
I0
tp4750
F0.8332793928679687
s(g3985
I1
tp4751
F0.0
s(g3987
I1
tp4752
F0.0
s((I140
I-100
I-5
tp4753
I0
tp4754
F0.8113875558474413
s((I40
I20
I-9
tp4755
I0
tp4756
F0.7292068129881907
s((I300
I20
I-2
tp4757
I1
tp4758
F0.0
s((I80
I-20
I-8
tp4759
I1
tp4760
F0.0
s(g3992
I1
tp4761
F0.0
s(g3994
I0
tp4762
F0.7485015981296416
s((I300
I-160
I10
tp4763
I1
tp4764
F0.0
s(g3997
I0
tp4765
F0.39046583333333335
s(g4000
I0
tp4766
F-2.4
s((I80
I-20
I5
tp4767
I1
tp4768
F0.0
s((I100
I120
I7
tp4769
I0
tp4770
F0.7053663866497317
s(g4007
I0
tp4771
F0.39046583333333335
s((I100
I40
I-3
tp4772
I0
tp4773
F-2.2047670833333335
s(g783
I0
tp4774
F0.7082565133594734
s((I80
I100
I7
tp4775
I0
tp4776
F0.6639099320604139
s(g4017
I1
tp4777
F0.0
s((I0
I60
I-2
tp4778
I1
tp4779
F0.0
s(g4020
I1
tp4780
F0.0
s((I60
I-80
I10
tp4781
I1
tp4782
F0.38902041190075237
s((I140
I-100
I-4
tp4783
I1
tp4784
F0.0
s(g4064
I0
tp4785
F0.4463263498179167
s((I40
I-60
I8
tp4786
I1
tp4787
F0.0
s((I80
I-160
I10
tp4788
I1
tp4789
F0.5081063730586238
s(g2862
I0
tp4790
F0.7541519627019354
s(g4027
I0
tp4791
F0.6315034831114208
s((I80
I-120
I9
tp4792
I0
tp4793
F0.6845149911242406
s(g4030
I0
tp4794
F0.17086135575396721
s((I80
I180
I3
tp4795
I0
tp4796
F0.5702446915696429
s(g2742
I0
tp4797
F0.833056521357465
s((I20
I20
I-1
tp4798
I0
tp4799
F-0.1666703823071921
s((I60
I20
I9
tp4800
I0
tp4801
F0.773598185298783
s((I40
I40
I-3
tp4802
I1
tp4803
F0.0
s(g4034
I1
tp4804
F0.0
s(g4534
I0
tp4805
F-2.4
s((I0
I60
I2
tp4806
I1
tp4807
F0.0
s((I380
I40
I0
tp4808
I1
tp4809
F0.0
s((I0
I20
I-1
tp4810
I1
tp4811
F-0.1641861674716043
s(g4039
I1
tp4812
F0.0
s(g3625
I1
tp4813
F0.0
s(g4041
I0
tp4814
F0.6592807120940661
s(g4043
I0
tp4815
F0.8320582549304523
s((I80
I100
I0
tp4816
I1
tp4817
F0.0
s(g4045
I1
tp4818
F0.0
s(g4181
I1
tp4819
F0.0
s(g4049
I0
tp4820
F0.6241525988374484
s(g2146
I0
tp4821
F0.7970043014462369
s((I280
I100
I5
tp4822
I0
tp4823
F0.39046583333333335
s(g4094
I0
tp4824
F0.8232713079234879
s(g4053
I0
tp4825
F0.7477842140947888
s((I40
I-40
I-1
tp4826
I1
tp4827
F-3.6071015934586006
s(g2672
I0
tp4828
F0.683671984252428
s(g4057
I0
tp4829
F0.8319198159569213
s(g4110
I1
tp4830
F0.0
s((I60
I0
I7
tp4831
I0
tp4832
F0.5272373494144774
s((I60
I20
I10
tp4833
I1
tp4834
F0.0
s((I180
I20
I5
tp4835
I0
tp4836
F0.5322518478697474
s(g4089
I1
tp4837
F-4.65
s(g4067
I0
tp4838
F-1.7749189137167911
s(g4449
I0
tp4839
F0.8332139273625767
s(g4071
I0
tp4840
F0.4721891150562203
s((I80
I-40
I9
tp4841
I0
tp4842
F0.8208165233345217
s(g4074
I1
tp4843
F0.0
s((I60
I220
I-9
tp4844
I0
tp4845
F0.39046583333333335
s(g4077
I0
tp4846
F0.7505352595872866
s(g517
I0
tp4847
F0.7798261468606498
s(g501
I1
tp4848
F0.0
s((I300
I0
I-1
tp4849
I0
tp4850
F0.8333164849827994
s(g4082
I1
tp4851
F0.0
s(g4084
I1
tp4852
F0.0
s(g4087
I1
tp4853
F0.0
s((I20
I40
I-4
tp4854
I1
tp4855
F0.0
s(g3328
I1
tp4856
F0.0
s(g3557
I0
tp4857
F0.6204782033896443
s((I120
I-100
I3
tp4858
I0
tp4859
F0.7423293535535418
s((I80
I200
I10
tp4860
I1
tp4861
F0.0
s(g4097
I0
tp4862
F0.7087129603278013
s(g1024
I1
tp4863
F0.0
s(g2411
I0
tp4864
F0.8245040031651758
s((I60
I40
I10
tp4865
I1
tp4866
F0.0
s(g4102
I0
tp4867
F0.39046583333333335
s((I60
I-40
I-3
tp4868
I0
tp4869
F0.7857490243108555
s(g4104
I1
tp4870
F-5.397482990009765
s((I220
I-140
I10
tp4871
I1
tp4872
F0.0
s((I180
I-40
I8
tp4873
I1
tp4874
F0.0
s((I20
I20
I1
tp4875
I1
tp4876
F0.8122233663693059
s(g1927
I1
tp4877
F0.7847773376580697
s(g4115
I0
tp4878
F0.8332366497130441
s(g4117
I1
tp4879
F0.0
s((I40
I-100
I4
tp4880
I1
tp4881
F0.0
s(g3648
I0
tp4882
F0.8107268180524532
s(g4420
I1
tp4883
F0.0
s(g3691
I0
tp4884
F0.5966783230124999
s(g2674
I0
tp4885
F0.7920058197421607
s(g4122
I0
tp4886
F0.8201415558645289
s((I240
I260
I0
tp4887
I1
tp4888
F0.0
s((I200
I20
I-1
tp4889
I1
tp4890
F0.0
s(g1591
I0
tp4891
F0.7643682287173776
s(g4129
I0
tp4892
F0.8332484021552592
s((I260
I-80
I5
tp4893
I0
tp4894
F0.8318754520849476
s(g4132
I0
tp4895
F0.39046583333333335
s((I360
I100
I4
tp4896
I1
tp4897
F0.0
s((I60
I0
I10
tp4898
I0
tp4899
F0.7024294625975644
s(g4137
I1
tp4900
F0.0
s(g1653
I1
tp4901
F0.0
s(g4145
I1
tp4902
F0.0
s((I320
I-40
I10
tp4903
I1
tp4904
F0.8332853967756797
s(g4148
I1
tp4905
F0.0
s(g4150
I1
tp4906
F0.0
s((I260
I0
I8
tp4907
I1
tp4908
F0.0
s(g4152
I0
tp4909
F0.8950593957556319
s((I40
I-20
I-3
tp4910
I0
tp4911
F0.7749941335326872
s(g4155
I0
tp4912
F0.7546214510684924
s(g4157
I0
tp4913
F0.683866408846014
s(g4
I0
tp4914
F0.39046583333333335
s(g4557
I1
tp4915
F0.0
s(g4163
I0
tp4916
F-3.7061240236362063
s(g4167
I0
tp4917
F0.4137308333333334
s(g4219
I1
tp4918
F0.0
s(g4169
I0
tp4919
F-1.3274381510416666
s(g10
I1
tp4920
F0.0
s(g4174
I0
tp4921
F-2.5583333333333336
s((I-20
I20
I-9
tp4922
I1
tp4923
F0.0
s(g4176
I0
tp4924
F0.7956385716935332
s(g4227
I0
tp4925
F0.39046583333333335
s(g2482
I1
tp4926
F-5.299414366021097
s(g20
I0
tp4927
F0.7795910992748515
s(g24
I0
tp4928
F0.8331510996001894
s(g28
I1
tp4929
F0.0
s(g4183
I0
tp4930
F0.8332599396373702
s(g30
I0
tp4931
F0.8273173976424134
s(g4185
I1
tp4932
F0.0
s(g4188
I0
tp4933
F0.8194602670968696
s(g32
I0
tp4934
F0.8333079908370741
s(g4191
I0
tp4935
F0.39046583333333335
s(g36
I0
tp4936
F0.7675892929721534
s(g4194
I0
tp4937
F0.45212749852427087
s(g38
I1
tp4938
F0.0
s(g2493
I1
tp4939
F0.0
s((I-40
I60
I-5
tp4940
I1
tp4941
F0.0
s(g50
I1
tp4942
F0.0
s((I200
I-80
I1
tp4943
I0
tp4944
F0.8172860835536875
s(g4201
I1
tp4945
F0.0
s(g52
I1
tp4946
F-3.514590838231366
s(g4203
I1
tp4947
F0.0
s(g1992
I1
tp4948
F0.0
s((I60
I-80
I-7
tp4949
I1
tp4950
F0.0
s(g60
I0
tp4951
F0.8230142019299372
s(g4206
I1
tp4952
F0.0
s(g64
I1
tp4953
F0.8312836596033739
s(g4209
I1
tp4954
F0.0
s(g68
I1
tp4955
F0.0
s(g72
I1
tp4956
F0.0
s(g2431
I1
tp4957
F0.3973058333333333
s(g76
I1
tp4958
F-3.6238027675163464
s(g80
I0
tp4959
F0.5974316534330875
s(g4314
I1
tp4960
F0.0
s(g4223
I1
tp4961
F0.0
s(g86
I0
tp4962
F0.8317018961098196
s(g4225
I1
tp4963
F0.0
s(g90
I1
tp4964
F-5.919812297897073
s(g1824
I1
tp4965
F0.0
s(g4285
I1
tp4966
F0.0
s(g4023
I1
tp4967
F0.0
s(g96
I0
tp4968
F0.8124862649020721
s(g4232
I0
tp4969
F0.8210731639573181
s(g4235
I0
tp4970
F0.8332604634218128
s(g100
I0
tp4971
F0.83298175810009
s(g1494
I0
tp4972
F0.832451715710538
s(g3768
I0
tp4973
F-2.4
s(g108
I0
tp4974
F-1.9208333333333334
s(g4242
I1
tp4975
F0.0
s(g112
I1
tp4976
F0.0
s(g4246
I0
tp4977
F-2.4
s(g1575
I0
tp4978
F0.8331183679169054
s(g4249
I0
tp4979
F0.7874142271809631
s(g116
I0
tp4980
F-5.845278599588827
s(g2271
I0
tp4981
F0.8324193145324414
s(g2367
I0
tp4982
F0.7793695472481079
s(g122
I0
tp4983
F0.8265020736438708
s(g354
I0
tp4984
F0.5681210296986539
s(g4257
I1
tp4985
F0.0
s(g128
I1
tp4986
F0.7921547609285142
s(g130
I0
tp4987
F0.784059389053952
s((I300
I20
I-7
tp4988
I0
tp4989
F0.8330953127888432
s(g3627
I0
tp4990
F-1.9208333333333334
s(g4262
I1
tp4991
F0.0
s(g136
I0
tp4992
F0.7005928704494642
s(g140
I0
tp4993
F0.7545047256302893
s(g142
I0
tp4994
F0.8332119727600993
s(g4266
I1
tp4995
F0.0
s(g4271
I1
tp4996
F0.0
s(g146
I0
tp4997
F0.0
s(g148
I1
tp4998
F0.5787631214534099
s(g4274
I1
tp4999
F0.0
s(g4276
I1
tp5000
F0.0
s(g154
I1
tp5001
F0.0
s(g4278
I0
tp5002
F0.5355008529325
s(g156
I0
tp5003
F0.789887246978265
s(g4281
I0
tp5004
F0.5935537971458333
s(g158
I1
tp5005
F0.0
s(g4283
I0
tp5006
F0.8332286250878683
s(g160
I0
tp5007
F0.39046583333333335
s(g162
I1
tp5008
F0.0
s(g94
I0
tp5009
F0.8304063687503922
s(g4288
I1
tp5010
F0.0
s(g166
I1
tp5011
F0.0
s(g4291
I0
tp5012
F0.8332528797154104
s(g963
I1
tp5013
F0.0
s(g170
I0
tp5014
F0.18447371955463027
s(g172
I1
tp5015
F0.0
s(g4298
I1
tp5016
F0.0
s(g174
I0
tp5017
F0.5802926489180471
s(g106
I0
tp5018
F0.5191067565580327
s(g4303
I0
tp5019
F-2.9116901041666665
s(g4305
I0
tp5020
F0.8331668911242055
s(g184
I1
tp5021
F0.0
s(g2539
I0
tp5022
F0.4137308333333334
s(g186
I0
tp5023
F0.7824596090556293
s(g4312
I1
tp5024
F0.0
s(g4316
I0
tp5025
F0.6721543199787341
s((I200
I-20
I-1
tp5026
I1
tp5027
F0.0
s(g4318
I0
tp5028
F0.8332694209006211
s(g4320
I0
tp5029
F0.833278578902634
s(g192
I0
tp5030
F0.7950578555221568
s(g2615
I1
tp5031
F0.5203184185991483
s(g2107
I0
tp5032
F0.6543939633924074
s(g200
I0
tp5033
F-1.8567083333333336
s(g206
I1
tp5034
F0.0
s((I60
I20
I1
tp5035
I0
tp5036
F0.604022436486558
s((I100
I180
I1
tp5037
I1
tp5038
F0.0
s(g4328
I1
tp5039
F-3.829019166666667
s((I200
I-100
I1
tp5040
I1
tp5041
F0.0
s(g4518
I1
tp5042
F0.0
s(g218
I0
tp5043
F0.46573742266666673
s(g222
I1
tp5044
F-1.051931820550984
s(g4333
I1
tp5045
F0.0
s(g226
I0
tp5046
F-1.7608616191623672
s(g4336
I1
tp5047
F0.0
s(g4339
I0
tp5048
F0.5029165014580304
s(g3251
I1
tp5049
F0.0
s(g240
I1
tp5050
F0.0
s(g1670
I0
tp5051
F-0.8503430936348813
s(g4373
I1
tp5052
F0.0
s(g4343
I0
tp5053
F-1.8567083333333336
s(g244
I0
tp5054
F0.8260019267011064
s(g246
I1
tp5055
F0.0
s(g250
I1
tp5056
F0.0
s(g4347
I0
tp5057
F-2.4
s((I200
I-20
I10
tp5058
I1
tp5059
F0.0
s(g4382
I1
tp5060
F0.0
s(g2976
I1
tp5061
F0.0
s(g258
I1
tp5062
F0.0
s(g847
I1
tp5063
F0.5979753862658334
s(g5037
I0
tp5064
F0.4713151219690517
s(g262
I0
tp5065
F0.5963760382125001
s(g3581
I1
tp5066
F0.0
s(g264
I1
tp5067
F0.0
s(g266
I1
tp5068
F0.8332362624033112
s(g268
I0
tp5069
F-2.4
s(g2676
I0
tp5070
F0.7115959499613145
s(g4357
I1
tp5071
F0.0
s(g4396
I1
tp5072
F-3.6606968711975103
s(g212
I0
tp5073
F0.8332648215430267
s(g4360
I0
tp5074
F0.6903598798983561
s(g274
I1
tp5075
F0.0
s(g4402
I1
tp5076
F0.0
s(g4407
I1
tp5077
F0.0
s(g4366
I0
tp5078
F0.8331920128992043
s(g4368
I1
tp5079
F-6.199033600569506
s((I80
I-20
I7
tp5080
I1
tp5081
F0.0
s(g288
I0
tp5082
F0.8114233809343655
s(g2214
I0
tp5083
F-3.5999999999999996
s(g292
I0
tp5084
F-2.4
s(g296
I0
tp5085
F0.7928550555209036
s(g304
I1
tp5086
F0.0
s(g308
I0
tp5087
F-0.05832401238851676
s(g4376
I1
tp5088
F-2.2575590960813225
s(g312
I0
tp5089
F0.8252441978333475
s(g314
I0
tp5090
F0.8211222699495955
s(g3192
I0
tp5091
F0.708254470585834
s(g4379
I0
tp5092
F-0.9627991913325122
s(g4424
I1
tp5093
F0.0
s(g318
I1
tp5094
F0.0
s(g4385
I1
tp5095
F0.0
s(g320
I1
tp5096
F0.0
s(g322
I1
tp5097
F0.0
s(g326
I1
tp5098
F0.0
s(g569
I0
tp5099
F0.8040914123473741
s(g332
I0
tp5100
F0.0
s(g334
I1
tp5101
F0.0
s(g4393
I0
tp5102
F0.7991912990830461
s(g2220
I1
tp5103
F0.0
s(g340
I1
tp5104
F0.0
s(g3186
I0
tp5105
F-1.9583333333333333
s(g346
I0
tp5106
F0.827087348898692
s(g352
I1
tp5107
F0.0
s(g4404
I0
tp5108
F-2.4
s(g282
I1
tp5109
F0.0
s((I40
I80
I10
tp5110
I1
tp5111
F0.0
s(g360
I1
tp5112
F0.0
s(g4409
I0
tp5113
F0.7617421016160923
s(g4740
I0
tp5114
F0.8331491174686447
s(g362
I0
tp5115
F0.8322965813011329
s(g4412
I1
tp5116
F0.0
s(g4415
I0
tp5117
F0.8332618181005473
s(g5026
I0
tp5118
F0.7770843663055994
s(g368
I0
tp5119
F0.8333147621280459
s(g372
I0
tp5120
F-2.4
s(g379
I1
tp5121
F0.0
s(g178
I1
tp5122
F0.0
s(g4478
I0
tp5123
F0.5980730360897737
s(g2774
I0
tp5124
F0.8131845348107655
s(g4428
I0
tp5125
F-1.9208333333333334
s(g387
I0
tp5126
F-1.7085405447358286
s(g389
I0
tp5127
F0.39046583333333335
s(g4432
I0
tp5128
F-2.4
s(g3541
I0
tp5129
F0.8131430297346811
s(g4435
I1
tp5130
F0.0
s(g4441
I1
tp5131
F0.0
s(g399
I0
tp5132
F0.36962812732167166
s(g4445
I0
tp5133
F0.39254754688317195
s((I260
I-40
I9
tp5134
I0
tp5135
F0.8332914319457645
s(g4858
I1
tp5136
F0.0
s(g407
I0
tp5137
F-0.6746731549503917
s(g4452
I0
tp5138
F0.4590899401704138
s(g5080
I0
tp5139
F0.8018986581218885
s(g3650
I1
tp5140
F0.0
s(g4459
I0
tp5141
F0.8202051550553511
s(g4511
I0
tp5142
F0.07306263773680063
s(g417
I0
tp5143
F0.8310472033751878
s(g1774
I0
tp5144
F0.39046583333333335
s(g4462
I0
tp5145
F0.7119726377648454
s(g423
I0
tp5146
F0.8312476907866079
s(g1192
I1
tp5147
F0.0
s(g4469
I1
tp5148
F0.0
s(g3620
I1
tp5149
F0.0
s(g4473
I0
tp5150
F0.6407998334723732
s(g431
I0
tp5151
F0.6588465390044708
s(g435
I1
tp5152
F0.0
s(g4480
I1
tp5153
F0.0
s(g3809
I0
tp5154
F0.7082548269339018
s(g4537
I1
tp5155
F-3.6639752797206158
s(g2340
I1
tp5156
F-3.685327683547079
s(g4542
I1
tp5157
F0.0
s((I140
I-60
I-5
tp5158
I0
tp5159
F0.8309635220313788
s(g4488
I0
tp5160
F0.8331729835388348
s(g4549
I1
tp5161
F0.0
s(g453
I0
tp5162
F-0.275577315619467
s(g4520
I1
tp5163
F0.0
s(g457
I1
tp5164
F0.0
s(g2827
I1
tp5165
F0.0
s(g459
I0
tp5166
F-4.103561181681831
s(g4555
I1
tp5167
F0.0
s(g3938
I0
tp5168
F0.39046583333333335
s(g1856
I1
tp5169
F0.0
s(g465
I0
tp5170
F0.8307591516199699
s(g4499
I0
tp5171
F0.630844718501912
s(g4563
I1
tp5172
F0.0
s(g4502
I0
tp5173
F0.39046583333333335
s(g4505
I0
tp5174
F-2.9308854166666665
s(g3848
I0
tp5175
F0.7318957609826646
s(g2324
I1
tp5176
F0.0
s(g475
I1
tp5177
F0.0
s(g481
I1
tp5178
F0.0
s(g4513
I1
tp5179
F0.0
s(g4577
I0
tp5180
F0.48727345222000007
s(g4523
I0
tp5181
F0.8157605168229627
s(g4528
I0
tp5182
F0.8293079592007793
s(g4532
I1
tp5183
F0.0
s(g499
I1
tp5184
F0.0
s(g956
I0
tp5185
F0.7510069775067211
s(g503
I0
tp5186
F-2.4
s(g4100
I0
tp5187
F-2.4
s(g4540
I1
tp5188
F0.0
s(g2651
I1
tp5189
F0.0
s(g4544
I0
tp5190
F0.8198895386253694
s(g2860
I0
tp5191
F0.8259657585367981
s(g447
I0
tp5192
F0.39046583333333335
s(g2370
I1
tp5193
F0.0
s(g2719
I1
tp5194
F0.0
s(g4910
I1
tp5195
F0.0
s(g523
I1
tp5196
F0.0
s(g3174
I1
tp5197
F0.0
s(g4217
I1
tp5198
F0.0
s(g2877
I1
tp5199
F0.0
s(g529
I0
tp5200
F0.8330852256063255
s(g4254
I1
tp5201
F-3.742533901823567
s(g4567
I0
tp5202
F-1.1848400960253849
s(g531
I0
tp5203
F-1.9583333333333333
s(g535
I0
tp5204
F0.0
s(g4570
I1
tp5205
F0.0
s(g4572
I1
tp5206
F0.0
s(g541
I0
tp5207
F0.791602807738214
s(g489
I1
tp5208
F-5.843333333333334
s(g634
I1
tp5209
F0.0
s(g4582
I1
tp5210
F0.0
s(g4854
I0
tp5211
F0.2752269684488538
s(g4585
I1
tp5212
F0.0
s(g2896
I0
tp5213
F0.5223106628961759
s(g4587
I1
tp5214
F0.0
s(g505
I0
tp5215
F-2.4
s(g4592
I0
tp5216
F-2.4
s(g4594
I1
tp5217
F0.0
s(g567
I0
tp5218
F0.319495033578313
s(g4596
I0
tp5219
F0.8215837774445482
s(g575
I1
tp5220
F0.0
s(g2414
I0
tp5221
F0.8240671931751802
s(g4600
I1
tp5222
F0.0
s(g578
I0
tp5223
F0.833247109409036
s(g4603
I1
tp5224
F0.0
s(g4605
I0
tp5225
F0.8150000991774724
s(g580
I0
tp5226
F0.7918943995945367
s(g4608
I1
tp5227
F0.0
s(g4496
I1
tp5228
F0.0
s(g586
I1
tp5229
F0.0
s(g4516
I0
tp5230
F0.7608504134808034
s(g592
I1
tp5231
F0.0
s(g2433
I0
tp5232
F0.7151571325856616
s(g598
I0
tp5233
F0.833264756941504
s(g2930
I0
tp5234
F0.7572575974931766
s(g4622
I1
tp5235
F-6.81463437314232
s(g4668
I0
tp5236
F-5.779477604166667
s(g606
I1
tp5237
F0.0
s(g4625
I1
tp5238
F0.0
s(g608
I1
tp5239
F0.0
s(g4628
I0
tp5240
F0.8933558548770295
s(g610
I0
tp5241
F-1.646965335244035
s(g612
I1
tp5242
F0.0
s(g4630
I1
tp5243
F0.0
s(g4676
I0
tp5244
F0.39046583333333335
s(g4632
I1
tp5245
F0.0
s(g624
I1
tp5246
F-5.296257372983851
s(g4635
I1
tp5247
F0.0
s(g626
I1
tp5248
F0.0
s(g628
I0
tp5249
F-1.8567083333333336
s(g632
I1
tp5250
F0.0
s(g4641
I0
tp5251
F-1.0818188929190864
s((I140
I-100
I-1
tp5252
I1
tp5253
F0.0
s(g4988
I1
tp5254
F0.0
s(g4645
I1
tp5255
F0.0
s(g4647
I1
tp5256
F0.0
s(g4690
I0
tp5257
F0.16830600520833333
s(g650
I1
tp5258
F0.0
s(g4650
I0
tp5259
F0.611549140154824
s(g2470
I1
tp5260
F0.0
s(g4437
I1
tp5261
F0.0
s(g653
I1
tp5262
F0.0
s(g4654
I0
tp5263
F0.0
s(g3659
I0
tp5264
F0.7613697842049887
s(g657
I1
tp5265
F0.5979753862658334
s(g4658
I1
tp5266
F0.0
s(g4701
I1
tp5267
F0.0
s(g4662
I0
tp5268
F-4.262708333333333
s(g663
I1
tp5269
F0.0
s(g443
I1
tp5270
F0.0
s(g602
I0
tp5271
F0.8283796617139881
s(g671
I0
tp5272
F0.8330982373403
s(g4715
I1
tp5273
F0.7392231273965102
s(g4670
I1
tp5274
F0.0
s(g679
I1
tp5275
F0.0
s(g4672
I0
tp5276
F0.3969531008636583
s(g4674
I1
tp5277
F0.0
s(g683
I1
tp5278
F0.0
s(g687
I1
tp5279
F-1.4655553771081498
s(g4943
I1
tp5280
F0.0
s(g1063
I0
tp5281
F0.6417233589753658
s(g695
I0
tp5282
F0.8256742997304622
s(g636
I1
tp5283
F0.0
s(g3744
I1
tp5284
F0.0
s(g4685
I1
tp5285
F0.0
s(g4687
I0
tp5286
F-3.0820833333333333
s(g703
I0
tp5287
F0.7116049611595278
s(g2359
I0
tp5288
F0.8332544771833411
s(g2150
I1
tp5289
F0.0
s(g3068
I1
tp5290
F0.0
s(g710
I0
tp5291
F0.7762362798890078
s(g714
I0
tp5292
F0.5176112703125
s(g4695
I1
tp5293
F-5.366515444342614
s(g4697
I1
tp5294
F0.5322106178125
s(g3025
I1
tp5295
F0.0
s(g655
I0
tp5296
F0.39046583333333335
s(g4699
I1
tp5297
F0.0
s(g724
I1
tp5298
F0.0
s(g5058
I0
tp5299
F0.8037955710528395
s(g2844
I0
tp5300
F-5.231369791666667
s(g4704
I1
tp5301
F0.0
s(g728
I0
tp5302
F0.7868296670696354
s(g734
I1
tp5303
F0.0
s(g738
I0
tp5304
F-3.048829067940901
s(g4709
I1
tp5305
F0.0
s(g742
I1
tp5306
F0.0
s(g4711
I1
tp5307
F0.0
s(g744
I0
tp5308
F0.7122191665745643
s(g4713
I0
tp5309
F0.17230719404799943
s(g1460
I1
tp5310
F0.0
s(g5110
I0
tp5311
F0.4697720028358364
s(g1994
I1
tp5312
F0.0
s(g4718
I1
tp5313
F-5.618333333333334
s(g2017
I1
tp5314
F0.0
s(g4721
I1
tp5315
F0.0
s(g4767
I0
tp5316
F0.7352191913154511
s(g754
I1
tp5317
F0.0
s(g5134
I1
tp5318
F0.0
s(g4725
I0
tp5319
F0.8331836818227722
s(g764
I1
tp5320
F0.0
s(g4727
I1
tp5321
F0.0
s(g766
I1
tp5322
F0.0
s(g5158
I1
tp5323
F0.0
s(g770
I0
tp5324
F0.42971324845246806
s(g774
I1
tp5325
F0.0
s(g1683
I0
tp5326
F0.8323852028215142
s(g781
I1
tp5327
F0.0
s(g4735
I0
tp5328
F0.8378361788006393
s(g4738
I1
tp5329
F0.0
s(g3904
I0
tp5330
F0.6694533910421518
s(g791
I1
tp5331
F0.0
s(g4743
I0
tp5332
F0.8319533816815926
s(g3505
I0
tp5333
F0.17095402576722718
s(g4619
I1
tp5334
F0.0
s(g4747
I1
tp5335
F0.0
s(g795
I1
tp5336
F0.0
s(g4749
I1
tp5337
F0.0
s(g4798
I1
tp5338
F0.18700248975617617
s(g4753
I1
tp5339
F0.0
s(g4802
I0
tp5340
F0.584296426524217
s(g803
I1
tp5341
F0.0
s(g4757
I0
tp5342
F0.8333230642721683
s(g3761
I0
tp5343
F0.28411307741844677
s(g4759
I0
tp5344
F0.7985571107310376
s(g811
I0
tp5345
F0.7327649359955821
s(g4763
I0
tp5346
F-3.1791666666666663
s(g817
I1
tp5347
F0.0
s(g750
I1
tp5348
F0.0
s(g821
I0
tp5349
F0.5702509365707613
s(g3362
I1
tp5350
F0.0
s(g4769
I1
tp5351
F0.0
s(g758
I1
tp5352
F0.0
s(g831
I1
tp5353
F0.0
s(g4772
I1
tp5354
F0.0
s(g837
I1
tp5355
F0.7882522217040637
s(g4775
I1
tp5356
F0.0
s(g839
I0
tp5357
F0.4285377083333334
s(g4755
I1
tp5358
F0.0
s(g4778
I0
tp5359
F0.551394491517768
s(g841
I1
tp5360
F0.0
s(g4010
I1
tp5361
F0.0
s(g4781
I0
tp5362
F-0.8899464355133074
s(g4664
I0
tp5363
F0.8319592381597787
s(g4783
I0
tp5364
F0.8125122169125958
s(g785
I0
tp5365
F0.8332967014609016
s(g849
I0
tp5366
F0.07980867156536747
s(g853
I0
tp5367
F0.787401302892959
s(g4786
I0
tp5368
F-1.9177083333333331
s(g855
I1
tp5369
F0.0
s(g4788
I0
tp5370
F-2.9116901041666665
s(g1946
I1
tp5371
F0.0
s(g3135
I0
tp5372
F-1.8293708333333334
s(g4792
I1
tp5373
F0.0
s(g863
I0
tp5374
F0.7045100131864189
s(g4795
I1
tp5375
F0.0
s(g867
I1
tp5376
F0.0
s(g4800
I1
tp5377
F0.0
s(g871
I0
tp5378
F0.8330487246026645
s(g48
I0
tp5379
F0.5851911678124999
s(g4806
I0
tp5380
F0.3976185848014943
s(g4808
I0
tp5381
F0.8332732817274437
s(g4810
I0
tp5382
F-0.44231648249403555
s(g4849
I1
tp5383
F0.0
s(g883
I1
tp5384
F0.0
s(g4816
I0
tp5385
F0.50184982051928
s(g5252
I0
tp5386
F0.8107046977467809
s(g1382
I1
tp5387
F-5.959498507982854
s(g887
I1
tp5388
F0.0
s(g4822
I1
tp5389
F0.0
s(g895
I0
tp5390
F0.0
s(g182
I0
tp5391
F0.8284981063367294
s(g897
I1
tp5392
F0.0
s(g1257
I0
tp5393
F-2.9116901041666665
s(g901
I1
tp5394
F0.0
s(g905
I1
tp5395
F0.0
s(g910
I0
tp5396
F0.8172754663589789
s(g1704
I1
tp5397
F0.7726727990916507
s(g914
I1
tp5398
F0.0
s(g4831
I1
tp5399
F0.0
s(g4875
I0
tp5400
F-1.8870833333333332
s(g4833
I0
tp5401
F0.7890690526168257
s(g920
I1
tp5402
F0.0
s(g924
I1
tp5403
F0.0
s(g2390
I1
tp5404
F0.0
s(g930
I0
tp5405
F0.7440941204657595
s(g4835
I1
tp5406
F0.0
s(g2866
I1
tp5407
F0.0
s(g511
I0
tp5408
F-2.7041666666666666
s(g938
I1
tp5409
F0.0
s(g942
I0
tp5410
F0.6714127529436243
s(g4841
I1
tp5411
F0.0
s(g4844
I1
tp5412
F0.0
s(g948
I1
tp5413
F0.0
s(g952
I1
tp5414
F0.0
s(g875
I0
tp5415
F0.5604980643085529
s(g4898
I1
tp5416
F0.0
s(g3967
I1
tp5417
F-1.5490406419489886
s(g463
I0
tp5418
F0.8018264165972242
s(g959
I0
tp5419
F0.7639248950123458
s(g3201
I0
tp5420
F0.8294077546111598
s(g497
I0
tp5421
F-1.8517103706666664
s(g969
I0
tp5422
F0.5158959640881868
s(g555
I0
tp5423
F0.5808569993209252
s(g4860
I0
tp5424
F0.43890446614583334
s(g5035
I1
tp5425
F0.0
s(g573
I1
tp5426
F0.0
s(g975
I1
tp5427
F0.0
s(g4865
I0
tp5428
F0.8052680197231736
s(g978
I0
tp5429
F0.44553794784583334
s(g4868
I1
tp5430
F0.0
s(g4826
I0
tp5431
F-1.7630984096679687
s(g4871
I0
tp5432
F-2.951041666666667
s(g3786
I0
tp5433
F-4.102368579610838
s(g4107
I0
tp5434
F0.8332834577905801
s(g4873
I0
tp5435
F0.8327535828208362
s(g986
I0
tp5436
F0.8332722615005896
s(g4922
I0
tp5437
F0.6256154109721099
s(g4880
I0
tp5438
F-1.8870833333333332
s(g996
I1
tp5439
F0.0
s(g1000
I1
tp5440
F0.0
s(g732
I0
tp5441
F-2.005638272165081
s(g1004
I1
tp5442
F0.0
s(g2820
I1
tp5443
F0.0
s(g3979
I1
tp5444
F0.0
s(g1008
I1
tp5445
F0.0
s(g4887
I0
tp5446
F0.4213540510466667
s(g4889
I0
tp5447
F0.8332866821720362
s(g1010
I1
tp5448
F0.0
s(g3936
I1
tp5449
F0.0
s(g1012
I0
tp5450
F0.8333122029942064
s(g4893
I1
tp5451
F0.0
s(g954
I0
tp5452
F0.39046583333333335
s(g4940
I0
tp5453
F0.6326612425051441
s(g4896
I0
tp5454
F0.833212803855687
s(g1978
I0
tp5455
F0.39046583333333335
s(g5040
I0
tp5456
F0.5686943809258334
s(g1018
I0
tp5457
F-2.112214573133718
s(g1020
I0
tp5458
F0.9813671253237068
s(g1748
I1
tp5459
F-0.11452203426594577
s(g4949
I0
tp5460
F0.16686828982469554
s(g1320
I1
tp5461
F0.0
s(g4903
I0
tp5462
F-1.8324042904929367
s(g4032
I0
tp5463
F0.4285377083333334
s(g4907
I0
tp5464
F0.8333170685749623
s(g1036
I1
tp5465
F0.0
s(g1040
I0
tp5466
F0.39046583333333335
s.