ccollections
defaultdict
p0
(c__builtin__
float
p1
tp2
Rp3
((I0
I-30
I-2
tp4
I0
tp5
F23.218867561266034
s((I80
I-90
I3
tp6
I1
tp7
F0.0
s((I240
I-90
I3
tp8
I0
tp9
F0.75648
s((I200
I60
I6
tp10
I1
tp11
F0.0
s((I280
I-210
I-7
tp12
I1
tp13
F0.0
s((I320
I-120
I9
tp14
I1
tp15
F0.0
s((I40
I0
I-5
tp16
I0
tp17
F12.0
s((I160
I-150
I6
tp18
I0
tp19
F0.48
s((I160
I-120
I-8
tp20
I1
tp21
F1.2033699061505394
s((I320
I-30
I7
tp22
I1
tp23
F0.0
s((I320
I0
I-1
tp24
I1
tp25
F0.0
s((I360
I-90
I5
tp26
I0
tp27
F1.238054934353156
s((I-40
I-60
I7
tp28
I1
tp29
F0.0
s((I200
I60
I-1
tp30
I0
tp31
F0.48
s((I0
I-30
I9
tp32
I0
tp33
F1.7044086784
s((I0
I-30
I-1
tp34
I0
tp35
F14.20803072
s((I0
I-90
I-5
tp36
I1
tp37
F0.0
s((I280
I150
I1
tp38
I0
tp39
F0.48
s((I80
I30
I2
tp40
I0
tp41
F3.58554624
s((I80
I150
I-8
tp42
I0
tp43
F0.48
s((I0
I-60
I-6
tp44
I1
tp45
F17.352139568799316
s((I240
I-90
I0
tp46
I1
tp47
F0.0
s((I320
I-120
I10
tp48
I0
tp49
F1.1809758815879348
s((I240
I-30
I-6
tp50
I1
tp51
F0.0
s((I240
I30
I-4
tp52
I1
tp53
F0.0
s((I320
I30
I-8
tp54
I0
tp55
F0.5224681272980275
s((I320
I30
I7
tp56
I0
tp57
F0.5693586526905564
s((I40
I180
I-5
tp58
I1
tp59
F0.0
s((I360
I30
I-2
tp60
I0
tp61
F1.078698045679299
s((I0
I-90
I-9
tp62
I0
tp63
F-400.0
s((I120
I-180
I7
tp64
I0
tp65
F0.8211748454400001
s((I160
I-150
I-2
tp66
I0
tp67
F1.0099584733111897
s((I280
I-150
I-6
tp68
I1
tp69
F0.0
s((I80
I-90
I-9
tp70
I0
tp71
F0.78710784
s((I120
I-150
I9
tp72
I1
tp73
F1.1133852955222214
s((I320
I90
I-4
tp74
I1
tp75
F0.0
s((I120
I-60
I-9
tp76
I0
tp77
F1.7021457022721693
s((I120
I-120
I-9
tp78
I0
tp79
F1.1730229033128707
s((I40
I-60
I-9
tp80
I1
tp81
F0.0
s((I40
I-90
I10
tp82
I1
tp83
F10.338111898882147
s((I160
I-120
I-9
tp84
I1
tp85
F0.0
s((I120
I-60
I0
tp86
I1
tp87
F0.0
s((I200
I-150
I-4
tp88
I0
tp89
F1.1513451037858307
s((I40
I-180
I-8
tp90
I1
tp91
F0.0
s((I360
I-90
I-7
tp92
I1
tp93
F0.0
s((I240
I-180
I0
tp94
I0
tp95
F0.79377408
s((I40
I0
I7
tp96
I1
tp97
F0.0
s((I200
I0
I1
tp98
I1
tp99
F0.0
s((I280
I-120
I10
tp100
I0
tp101
F1.2016486906125865
s((I280
I-90
I-2
tp102
I1
tp103
F0.0
s((I-40
I-30
I-6
tp104
I0
tp105
F18.56
s(g24
I0
tp106
F0.48
s((I160
I-30
I-7
tp107
I1
tp108
F0.0
s((I280
I60
I-3
tp109
I1
tp110
F0.0
s((I200
I-120
I2
tp111
I0
tp112
F0.60318748311552
s((I360
I30
I-1
tp113
I1
tp114
F0.0
s((I360
I60
I1
tp115
I0
tp116
F1.1090228890340483
s((I360
I-90
I-1
tp117
I0
tp118
F1.152401988030394
s((I40
I-150
I5
tp119
I0
tp120
F0.8901832449377226
s((I240
I-30
I-7
tp121
I1
tp122
F0.0
s((I240
I90
I3
tp123
I0
tp124
F0.48
s((I0
I-120
I-4
tp125
I0
tp126
F-400.0
s((I120
I-60
I-5
tp127
I1
tp128
F0.0
s((I40
I0
I8
tp129
I0
tp130
F10.180348269184869
s((I40
I0
I-3
tp131
I1
tp132
F0.0
s((I320
I60
I-4
tp133
I0
tp134
F1.1238712541184
s((I80
I-60
I4
tp135
I1
tp136
F0.0
s((I320
I60
I0
tp137
I0
tp138
F0.8022528
s((I280
I-120
I1
tp139
I0
tp140
F0.48
s((I280
I-60
I-9
tp141
I0
tp142
F0.9080144966981272
s((I280
I-90
I-4
tp143
I0
tp144
F0.54528
s((I280
I-60
I9
tp145
I0
tp146
F1.2121449924195506
s((I0
I0
I10
tp147
I0
tp148
F10.687755196825602
s((I320
I30
I-4
tp149
I1
tp150
F0.0
s((I160
I-60
I-3
tp151
I1
tp152
F0.0
s((I0
I0
I-1
tp153
I0
tp154
F17.542201542832448
s((I0
I-180
I-7
tp155
I0
tp156
F-400.0
s((I360
I60
I2
tp157
I1
tp158
F0.0
s((I280
I-150
I-5
tp159
I1
tp160
F0.0
s((I80
I60
I-4
tp161
I0
tp162
F0.77568
s((I80
I30
I-9
tp163
I0
tp164
F0.77568
s((I-80
I0
I2
tp165
I0
tp166
F8.0
s((I200
I-30
I6
tp167
I0
tp168
F1.177583189191933
s((I320
I60
I4
tp169
I1
tp170
F0.0
s((I120
I-90
I-5
tp171
I1
tp172
F0.0
s((I80
I-30
I0
tp173
I1
tp174
F0.0
s((I120
I-90
I6
tp175
I0
tp176
F0.8171003903999999
s((I320
I-150
I-7
tp177
I1
tp178
F0.0
s((I280
I-30
I-9
tp179
I0
tp180
F0.8299862276872664
s((I120
I-30
I4
tp181
I1
tp182
F0.0
s((I160
I-30
I2
tp183
I1
tp184
F0.0
s((I320
I-30
I2
tp185
I0
tp186
F0.8188569908076871
s((I240
I0
I10
tp187
I1
tp188
F0.0
s((I200
I-90
I10
tp189
I1
tp190
F0.0
s((I0
I-60
I-2
tp191
I0
tp192
F0.7104
s((I40
I180
I1
tp193
I1
tp194
F0.0
s((I280
I-150
I-8
tp195
I0
tp196
F1.1335212316282424
s((I120
I-90
I2
tp197
I1
tp198
F0.0
s((I80
I-120
I1
tp199
I1
tp200
F0.0
s((I200
I120
I-2
tp201
I0
tp202
F0.48
s((I120
I-90
I-8
tp203
I0
tp204
F1.206872921942948
s((I80
I0
I8
tp205
I0
tp206
F6.627442088423992
s((I0
I0
I-7
tp207
I1
tp208
F0.0
s((I360
I-30
I6
tp209
I1
tp210
F0.0
s((I0
I-30
I8
tp211
I1
tp212
F0.0
s((I320
I60
I3
tp213
I0
tp214
F0.75648
s((I160
I-240
I9
tp215
I1
tp216
F0.0
s((I120
I30
I-3
tp217
I0
tp218
F0.48
s((I280
I-120
I-6
tp219
I1
tp220
F0.0
s((I40
I180
I2
tp221
I0
tp222
F0.48
s((I160
I-90
I-2
tp223
I0
tp224
F1.119643616098364
s((I320
I-60
I6
tp225
I1
tp226
F0.0
s((I320
I60
I-2
tp227
I0
tp228
F0.8472268799999999
s((I400
I0
I-8
tp229
I0
tp230
F1.230540037200546
s((I-80
I0
I-8
tp231
I1
tp232
F3.7110697226173137
s((I320
I60
I2
tp233
I1
tp234
F0.0
s((I0
I-120
I10
tp235
I1
tp236
F0.0
s((I160
I-180
I4
tp237
I0
tp238
F0.48
s((I40
I-60
I-3
tp239
I0
tp240
F0.5110272
s((I360
I-60
I8
tp241
I0
tp242
F1.06168108056576
s((I200
I-90
I-4
tp243
I1
tp244
F0.0
s((I360
I-90
I0
tp245
I0
tp246
F0.0
s((I240
I90
I-4
tp247
I1
tp248
F0.0
s((I280
I150
I-1
tp249
I0
tp250
F0.48
s((I200
I-150
I5
tp251
I1
tp252
F0.0
s((I400
I-60
I-5
tp253
I1
tp254
F0.0
s((I240
I60
I2
tp255
I1
tp256
F0.0
s((I80
I-60
I-2
tp257
I0
tp258
F0.48
s((I280
I-30
I6
tp259
I1
tp260
F0.0
s((I-80
I-30
I-9
tp261
I1
tp262
F0.0
s(g157
I0
tp263
F1.1528205203734991
s((I-40
I-30
I7
tp264
I1
tp265
F0.0
s((I40
I-120
I8
tp266
I1
tp267
F0.0
s((I80
I-120
I-6
tp268
I1
tp269
F0.0
s((I400
I-90
I-9
tp270
I0
tp271
F1.2922575932300597
s((I120
I-120
I-5
tp272
I0
tp273
F1.131498598494151
s((I0
I30
I-9
tp274
I1
tp275
F0.0
s((I320
I0
I5
tp276
I0
tp277
F0.9071635400970417
s((I-40
I-30
I-7
tp278
I0
tp279
F14.3232
s((I40
I-30
I1
tp280
I1
tp281
F0.0
s((I240
I-210
I8
tp282
I1
tp283
F0.0
s(g131
I0
tp284
F19.392
s((I240
I-180
I3
tp285
I0
tp286
F0.54528
s((I0
I-60
I3
tp287
I0
tp288
F-399.92
s((I80
I0
I-3
tp289
I0
tp290
F2.255449383343573
s((I280
I-120
I-7
tp291
I1
tp292
F0.0
s((I120
I-120
I6
tp293
I0
tp294
F0.74136576
s((I0
I-60
I-9
tp295
I0
tp296
F-397.9882748274432
s((I200
I-180
I-8
tp297
I0
tp298
F0.511349963882496
s((I320
I-30
I4
tp299
I0
tp300
F1.1392768634707522
s((I80
I-90
I-4
tp301
I1
tp302
F0.0
s((I200
I-150
I6
tp303
I1
tp304
F0.0
s((I320
I0
I6
tp305
I1
tp306
F0.0
s((I40
I-120
I4
tp307
I1
tp308
F0.0
s((I360
I30
I-7
tp309
I1
tp310
F0.0
s((I400
I-90
I-3
tp311
I1
tp312
F0.0
s((I280
I-90
I10
tp313
I0
tp314
F1.211877412686499
s((I200
I120
I4
tp315
I1
tp316
F0.0
s((I80
I-30
I-6
tp317
I0
tp318
F1.6129663372373213
s((I0
I-90
I-2
tp319
I0
tp320
F-399.92
s((I280
I-30
I9
tp321
I1
tp322
F0.0
s((I280
I-210
I-8
tp323
I1
tp324
F0.0
s((I200
I30
I7
tp325
I0
tp326
F0.96838342803456
s((I40
I-60
I-8
tp327
I1
tp328
F0.0
s((I280
I-60
I6
tp329
I1
tp330
F0.0
s((I240
I60
I-7
tp331
I1
tp332
F0.0
s((I-40
I0
I4
tp333
I0
tp334
F8.0
s((I40
I-90
I-4
tp335
I1
tp336
F0.0
s((I280
I60
I4
tp337
I0
tp338
F0.5283862361447181
s((I320
I120
I-3
tp339
I0
tp340
F0.75648
s((I240
I-30
I10
tp341
I1
tp342
F0.0
s((I320
I30
I2
tp343
I1
tp344
F0.0
s((I160
I-120
I1
tp345
I1
tp346
F0.0
s((I320
I60
I-7
tp347
I1
tp348
F0.0
s((I360
I-30
I-2
tp349
I1
tp350
F0.0
s((I-40
I0
I-4
tp351
I1
tp352
F0.0
s((I240
I90
I6
tp353
I0
tp354
F0.48
s((I40
I0
I3
tp355
I0
tp356
F17.472
s((I280
I0
I4
tp357
I1
tp358
F0.0
s((I160
I-150
I-1
tp359
I0
tp360
F0.9953351761920001
s((I200
I-210
I8
tp361
I1
tp362
F0.0
s((I-40
I-60
I8
tp363
I0
tp364
F-415.22560000000004
s((I360
I0
I-5
tp365
I0
tp366
F1.1488335774521954
s((I40
I120
I-7
tp367
I0
tp368
F0.48
s((I40
I-180
I-9
tp369
I0
tp370
F-191.4624
s((I160
I-120
I2
tp371
I0
tp372
F0.8472575999999999
s((I200
I120
I3
tp373
I1
tp374
F0.0
s((I360
I-120
I8
tp375
I1
tp376
F0.0
s((I240
I-180
I-8
tp377
I1
tp378
F0.0
s((I200
I60
I-4
tp379
I0
tp380
F0.48
s((I360
I-30
I-3
tp381
I0
tp382
F1.1607871493403974
s((I280
I-210
I-5
tp383
I1
tp384
F0.0
s((I160
I-240
I10
tp385
I0
tp386
F0.6912
s((I120
I-120
I-3
tp387
I1
tp388
F0.0
s((I280
I90
I4
tp389
I1
tp390
F0.0
s((I240
I-90
I-2
tp391
I0
tp392
F0.7104
s((I160
I-90
I-4
tp393
I0
tp394
F1.2081817146204559
s((I240
I-60
I3
tp395
I0
tp396
F0.48
s((I-40
I0
I-8
tp397
I0
tp398
F17.5416045568
s((I240
I-210
I5
tp399
I1
tp400
F0.0
s((I40
I-30
I-6
tp401
I1
tp402
F0.0
s((I-40
I0
I-5
tp403
I1
tp404
F0.0
s((I280
I0
I-7
tp405
I0
tp406
F0.48
s((I400
I30
I-7
tp407
I1
tp408
F0.0
s((I-80
I30
I-7
tp409
I0
tp410
F7.2
s((I400
I-30
I-7
tp411
I1
tp412
F0.0
s((I160
I-120
I-7
tp413
I1
tp414
F0.0
s((I0
I-90
I2
tp415
I0
tp416
F-400.0
s((I80
I-90
I9
tp417
I1
tp418
F0.0
s((I360
I0
I-1
tp419
I1
tp420
F0.0
s((I400
I-120
I-9
tp421
I1
tp422
F0.0
s((I40
I-120
I-4
tp423
I1
tp424
F0.0
s((I240
I-210
I-7
tp425
I1
tp426
F0.0
s((I0
I-60
I-7
tp427
I1
tp428
F0.0
s((I40
I-90
I-1
tp429
I0
tp430
F9.877124568599186
s((I160
I-60
I10
tp431
I1
tp432
F0.48
s((I280
I60
I6
tp433
I1
tp434
F0.0
s((I80
I-150
I-7
tp435
I0
tp436
F0.9580400640000001
s((I200
I-210
I-9
tp437
I0
tp438
F0.5821199133179904
s((I120
I-60
I-6
tp439
I1
tp440
F0.0
s((I40
I0
I0
tp441
I0
tp442
F19.348992
s((I280
I60
I-9
tp443
I0
tp444
F0.48
s((I240
I-180
I5
tp445
I1
tp446
F0.0
s((I80
I-90
I-6
tp447
I0
tp448
F0.48
s((I80
I-90
I5
tp449
I0
tp450
F1.02164522336256
s((I40
I60
I2
tp451
I0
tp452
F6.68288
s((I40
I-60
I3
tp453
I1
tp454
F0.0
s((I360
I-60
I3
tp455
I0
tp456
F1.0771892639810412
s((I280
I-180
I-2
tp457
I1
tp458
F0.0
s((I40
I-60
I-1
tp459
I1
tp460
F0.0
s((I400
I-120
I-8
tp461
I0
tp462
F1.2239108601187552
s((I280
I-90
I-5
tp463
I1
tp464
F0.0
s((I240
I0
I-4
tp465
I1
tp466
F0.48
s((I320
I-30
I10
tp467
I0
tp468
F1.0111870824997342
s((I240
I-180
I9
tp469
I0
tp470
F1.0958541675351245
s((I0
I-90
I-3
tp471
I0
tp472
F0.48
s((I-40
I0
I-2
tp473
I0
tp474
F22.455009339978545
s((I400
I30
I-6
tp475
I1
tp476
F0.5835977958138838
s((I40
I-150
I10
tp477
I1
tp478
F0.8573850675000114
s((I280
I0
I6
tp479
I0
tp480
F0.48
s((I0
I-30
I3
tp481
I0
tp482
F17.686694491245945
s((I320
I-60
I-9
tp483
I0
tp484
F0.48
s((I200
I0
I8
tp485
I1
tp486
F0.0
s((I200
I-180
I0
tp487
I0
tp488
F0.48
s((I80
I-60
I6
tp489
I0
tp490
F0.4992
s((I160
I-90
I3
tp491
I0
tp492
F1.1026528984693424
s((I160
I30
I7
tp493
I1
tp494
F0.0
s((I120
I-150
I-6
tp495
I0
tp496
F0.9442770124800001
s((I400
I-120
I-6
tp497
I0
tp498
F1.2016594539361651
s((I40
I-90
I0
tp499
I1
tp500
F10.439298183617373
s((I120
I0
I1
tp501
I1
tp502
F0.0
s((I240
I-180
I10
tp503
I1
tp504
F0.0
s((I40
I30
I6
tp505
I1
tp506
F0.0
s((I80
I0
I-8
tp507
I0
tp508
F0.75648
s((I120
I-90
I10
tp509
I1
tp510
F0.48
s((I120
I-180
I8
tp511
I0
tp512
F0.7953518592000001
s((I240
I-120
I-5
tp513
I0
tp514
F1.1517032056419174
s((I240
I120
I-6
tp515
I0
tp516
F0.77568
s((I240
I-60
I8
tp517
I0
tp518
F1.034013841723932
s((I120
I-60
I-7
tp519
I1
tp520
F0.0
s((I0
I-30
I0
tp521
I1
tp522
F0.0
s((I320
I30
I-7
tp523
I1
tp524
F0.0
s((I280
I-30
I-2
tp525
I0
tp526
F0.48
s((I240
I-60
I4
tp527
I0
tp528
F0.48
s((I80
I30
I-1
tp529
I1
tp530
F0.0
s((I240
I60
I-3
tp531
I1
tp532
F0.0
s((I160
I-30
I-8
tp533
I1
tp534
F0.0
s((I240
I0
I-8
tp535
I0
tp536
F0.48
s((I280
I30
I9
tp537
I1
tp538
F0.0
s((I160
I-120
I-3
tp539
I0
tp540
F0.6051244379996159
s((I40
I-30
I5
tp541
I0
tp542
F6.691359285507039
s((I240
I0
I-5
tp543
I1
tp544
F0.0
s((I320
I-60
I2
tp545
I0
tp546
F1.2345928352711624
s((I200
I30
I2
tp547
I0
tp548
F0.7104
s((I80
I-120
I10
tp549
I0
tp550
F1.3219031161946795
s((I120
I30
I-6
tp551
I1
tp552
F0.0
s((I360
I-90
I8
tp553
I0
tp554
F1.224744758120997
s((I400
I-60
I-6
tp555
I1
tp556
F1.2005265100513594
s((I40
I-30
I2
tp557
I1
tp558
F0.0
s((I160
I-90
I5
tp559
I0
tp560
F1.1729288673402751
s((I40
I180
I0
tp561
I1
tp562
F0.0
s((I280
I60
I-5
tp563
I0
tp564
F0.48
s(g40
I1
tp565
F0.0
s((I280
I-180
I-7
tp566
I0
tp567
F0.7104
s((I240
I0
I3
tp568
I0
tp569
F0.48
s((I40
I-150
I1
tp570
I0
tp571
F0.867072
s((I40
I-30
I-3
tp572
I1
tp573
F0.0
s((I40
I-90
I-2
tp574
I1
tp575
F0.0
s((I280
I120
I-1
tp576
I0
tp577
F0.77568
s((I360
I-60
I4
tp578
I0
tp579
F0.81619968
s((I280
I60
I-7
tp580
I0
tp581
F0.48
s((I80
I0
I1
tp582
I1
tp583
F0.0
s((I400
I-90
I-2
tp584
I1
tp585
F0.52608
s((I240
I-120
I3
tp586
I1
tp587
F0.0
s((I360
I30
I-9
tp588
I0
tp589
F0.960163093453474
s((I40
I-90
I-5
tp590
I1
tp591
F0.0
s((I160
I-60
I-5
tp592
I0
tp593
F1.1473960911364547
s((I280
I-120
I-8
tp594
I1
tp595
F0.0
s((I160
I-90
I-8
tp596
I0
tp597
F1.0572556296534508
s((I200
I-90
I0
tp598
I1
tp599
F0.0
s((I160
I-30
I-6
tp600
I0
tp601
F0.9031694957501272
s((I200
I-150
I-7
tp602
I1
tp603
F0.0
s((I240
I90
I10
tp604
I1
tp605
F0.0
s((I40
I-150
I8
tp606
I0
tp607
F0.8925875807755174
s((I280
I-30
I4
tp608
I0
tp609
F0.52608
s((I120
I-90
I-3
tp610
I0
tp611
F1.1460041664988136
s((I160
I-30
I-5
tp612
I1
tp613
F0.0
s((I320
I60
I-9
tp614
I1
tp615
F0.0
s((I-80
I30
I-9
tp616
I0
tp617
F-398.77661664347426
s((I80
I-120
I-4
tp618
I0
tp619
F1.0700164300800001
s((I200
I30
I9
tp620
I0
tp621
F1.137226219297148
s((I80
I0
I2
tp622
I0
tp623
F1.4150389921281472
s((I240
I-120
I4
tp624
I0
tp625
F0.98359296
s((I240
I-60
I10
tp626
I0
tp627
F1.2344143309860947
s((I200
I-120
I-6
tp628
I0
tp629
F1.1129772274093013
s((I80
I0
I-1
tp630
I1
tp631
F0.0
s((I400
I-60
I-7
tp632
I1
tp633
F1.0698073559212848
s((I200
I90
I9
tp634
I0
tp635
F0.965507039232
s((I40
I-60
I-5
tp636
I0
tp637
F0.95781888
s((I360
I-30
I1
tp638
I1
tp639
F0.0
s((I80
I-30
I2
tp640
I1
tp641
F0.0
s((I0
I150
I5
tp642
I1
tp643
F0.0
s((I280
I120
I2
tp644
I0
tp645
F0.8199167999999999
s((I240
I-150
I6
tp646
I0
tp647
F0.48
s((I320
I-60
I3
tp648
I0
tp649
F1.2387850559371618
s((I160
I-120
I-4
tp650
I1
tp651
F0.0
s((I120
I-120
I-7
tp652
I0
tp653
F1.1994630413452592
s((I240
I-150
I5
tp654
I1
tp655
F0.0
s((I240
I-120
I0
tp656
I1
tp657
F0.48
s((I280
I120
I-6
tp658
I0
tp659
F0.48
s((I400
I-90
I-6
tp660
I0
tp661
F1.0940782485446554
s((I80
I-60
I1
tp662
I0
tp663
F0.48
s((I200
I0
I4
tp664
I0
tp665
F0.97186284896256
s((I240
I30
I-2
tp666
I1
tp667
F0.0
s((I40
I-30
I3
tp668
I1
tp669
F0.0
s((I360
I-30
I-7
tp670
I1
tp671
F0.0
s((I120
I-30
I-8
tp672
I1
tp673
F0.48
s((I80
I-150
I-4
tp674
I0
tp675
F0.95781888
s((I-40
I-30
I1
tp676
I0
tp677
F14.357773320191999
s((I200
I-90
I3
tp678
I1
tp679
F0.0
s((I280
I-240
I10
tp680
I0
tp681
F-479.98400000000004
s((I80
I-90
I0
tp682
I0
tp683
F0.9948989263183872
s((I320
I90
I-5
tp684
I0
tp685
F1.1408416006423865
s((I40
I0
I-4
tp686
I1
tp687
F0.0
s((I-40
I0
I3
tp688
I0
tp689
F12.515985408
s((I200
I-180
I10
tp690
I0
tp691
F-479.98400000000004
s((I160
I-90
I-9
tp692
I1
tp693
F0.0
s((I200
I-60
I9
tp694
I1
tp695
F0.0
s((I80
I30
I-6
tp696
I0
tp697
F0.7296
s((I0
I-90
I-8
tp698
I0
tp699
F-399.904
s((I80
I-60
I0
tp700
I0
tp701
F0.48
s((I80
I0
I-9
tp702
I0
tp703
F0.918915072
s((I80
I-120
I-1
tp704
I1
tp705
F0.0
s(g30
I1
tp706
F0.0
s((I80
I-120
I-7
tp707
I1
tp708
F0.0
s((I200
I60
I5
tp709
I1
tp710
F0.0
s((I80
I-30
I5
tp711
I1
tp712
F0.7104
s((I80
I0
I4
tp713
I1
tp714
F0.0
s((I120
I-60
I7
tp715
I1
tp716
F0.8921792127959041
s(g34
I1
tp717
F0.0
s((I240
I30
I-7
tp718
I1
tp719
F0.0
s((I120
I-30
I-5
tp720
I1
tp721
F0.0
s((I360
I0
I3
tp722
I1
tp723
F0.0
s((I40
I-60
I-4
tp724
I0
tp725
F0.58549248
s((I360
I-30
I2
tp726
I1
tp727
F0.0
s(g8
I1
tp728
F0.0
s(g10
I0
tp729
F0.54528
s((I160
I-30
I3
tp730
I1
tp731
F0.0
s(g16
I1
tp732
F0.0
s(g20
I0
tp733
F0.48
s((I200
I-120
I-7
tp734
I0
tp735
F1.0172030419005282
s(g26
I1
tp736
F0.0
s((I360
I-60
I-7
tp737
I0
tp738
F1.1980214775278786
s((I360
I-90
I-2
tp739
I0
tp740
F1.202541849794837
s((I360
I-60
I-8
tp741
I1
tp742
F0.0
s(g38
I1
tp743
F0.0
s((I280
I-30
I3
tp744
I0
tp745
F0.7104
s((I320
I90
I0
tp746
I1
tp747
F0.0
s((I40
I60
I-2
tp748
I0
tp749
F0.77568
s((I0
I30
I-7
tp750
I1
tp751
F0.0
s(g46
I0
tp752
F0.886272
s(g18
I1
tp753
F0.0
s((I-80
I30
I-1
tp754
I0
tp755
F3.831305650765567
s(g52
I0
tp756
F0.886272
s((I120
I-180
I-8
tp757
I1
tp758
F0.0
s((I280
I60
I2
tp759
I1
tp760
F0.0
s((I280
I-180
I-1
tp761
I1
tp762
F0.0
s((I360
I0
I0
tp763
I1
tp764
F0.0
s(g329
I0
tp765
F0.52608
s(g62
I1
tp766
F0.0
s((I240
I30
I0
tp767
I1
tp768
F0.0
s(g64
I1
tp769
F0.0
s(g98
I0
tp770
F1.042753536
s((I0
I-180
I-8
tp771
I1
tp772
F0.0
s(g68
I0
tp773
F1.188638540597356
s((I240
I90
I0
tp774
I1
tp775
F0.0
s(g70
I1
tp776
F0.0
s(g74
I0
tp777
F1.157333377613052
s((I200
I-120
I-1
tp778
I0
tp779
F0.84189958569984
s(g76
I1
tp780
F1.105658498053754
s((I0
I-30
I10
tp781
I1
tp782
F0.0
s((I-40
I-60
I6
tp783
I1
tp784
F0.0
s((I240
I-150
I8
tp785
I1
tp786
F0.0
s((I280
I-60
I10
tp787
I1
tp788
F1.008819372111382
s(g78
I1
tp789
F0.0
s((I200
I-60
I-9
tp790
I0
tp791
F0.48
s(g82
I0
tp792
F-45.568848465100785
s((I80
I-150
I-5
tp793
I0
tp794
F0.9651044352
s(g133
I1
tp795
F0.48
s(g90
I0
tp796
F-37.912319999999994
s((I240
I-60
I0
tp797
I1
tp798
F0.0
s((I320
I-30
I3
tp799
I0
tp800
F1.1207770541786692
s((I200
I-90
I-2
tp801
I1
tp802
F0.0
s((I80
I-30
I-7
tp803
I0
tp804
F1.7812453329129252
s(g161
I1
tp805
F0.0
s((I320
I-60
I-8
tp806
I0
tp807
F0.48
s((I40
I180
I4
tp808
I1
tp809
F0.0
s((I240
I60
I-1
tp810
I1
tp811
F0.0
s(g149
I0
tp812
F0.48
s((I320
I-30
I-5
tp813
I0
tp814
F0.970881073152
s(g113
I0
tp815
F1.2104639396050763
s((I200
I-150
I-3
tp816
I0
tp817
F1.142522008038342
s(g737
I1
tp818
F0.7528622303618806
s(g119
I1
tp819
F0.0
s(g123
I1
tp820
F0.0
s(g191
I1
tp821
F0.0
s((I320
I-30
I0
tp822
I1
tp823
F0.0
s((I240
I60
I-8
tp824
I1
tp825
F0.0
s(g135
I0
tp826
F0.77568
s((I40
I120
I-8
tp827
I0
tp828
F0.48
s((I400
I-120
I-3
tp829
I0
tp830
F0.78486528
s(g139
I1
tp831
F0.0
s((I320
I0
I3
tp832
I0
tp833
F1.1653329348272499
s(g145
I1
tp834
F0.0
s((I360
I30
I-6
tp835
I1
tp836
F0.0
s((I240
I0
I9
tp837
I1
tp838
F0.0
s((I200
I120
I-1
tp839
I1
tp840
F0.0
s(g155
I1
tp841
F-15.324799999999996
s((I360
I-60
I-6
tp842
I0
tp843
F1.2007090031377365
s(g837
I0
tp844
F1.184981965706701
s((I80
I0
I-5
tp845
I0
tp846
F3.721004865385039
s((I240
I-150
I10
tp847
I1
tp848
F0.0
s(g163
I1
tp849
F0.0
s(g778
I1
tp850
F0.0
s((I240
I-150
I-7
tp851
I1
tp852
F0.0
s(g169
I0
tp853
F0.77568
s((I0
I-30
I1
tp854
I0
tp855
F18.002252023824227
s((I280
I120
I-3
tp856
I0
tp857
F0.48
s((I360
I30
I2
tp858
I1
tp859
F0.0
s(g179
I1
tp860
F0.0
s((I80
I-150
I0
tp861
I1
tp862
F0.0
s(g181
I0
tp863
F1.5236492443779075
s((I320
I0
I4
tp864
I1
tp865
F0.0
s((I280
I-90
I-3
tp866
I0
tp867
F0.4992
s((I40
I0
I1
tp868
I0
tp869
F19.27808
s((I360
I30
I1
tp870
I0
tp871
F0.9959982548836988
s(g187
I0
tp872
F1.241120436611179
s(g189
I0
tp873
F1.230482552309695
s((I200
I-120
I5
tp874
I0
tp875
F0.54528
s((I200
I-150
I-8
tp876
I1
tp877
F0.8911218868223999
s((I360
I-90
I-3
tp878
I0
tp879
F1.1470471736008556
s(g197
I0
tp880
F0.7801344
s((I240
I-90
I-5
tp881
I1
tp882
F0.0
s((I280
I30
I7
tp883
I0
tp884
F1.0285092864
s((I200
I30
I1
tp885
I0
tp886
F0.48
s(g211
I0
tp887
F7.722043392000001
s((I240
I60
I-6
tp888
I0
tp889
F0.4992
s((I80
I-180
I-9
tp890
I0
tp891
F0.8007167999999999
s(g217
I1
tp892
F0.0
s(g842
I1
tp893
F0.0
s((I280
I30
I-7
tp894
I1
tp895
F0.0
s((I320
I120
I-5
tp896
I0
tp897
F0.4992
s((I40
I-150
I3
tp898
I0
tp899
F1.1120231979417599
s((I80
I0
I-2
tp900
I1
tp901
F0.0
s(g219
I0
tp902
F0.48
s((I80
I-60
I3
tp903
I1
tp904
F0.0
s((I360
I60
I-6
tp905
I0
tp906
F1.0648451088384001
s((I280
I-30
I-8
tp907
I1
tp908
F0.9030701501047325
s((I320
I30
I6
tp909
I0
tp910
F0.926793263452782
s(g231
I0
tp911
F0.0
s(g233
I0
tp912
F0.7406592000000001
s((I280
I-180
I-3
tp913
I1
tp914
F0.0
s((I280
I60
I-2
tp915
I0
tp916
F0.7785848832000001
s((I320
I0
I0
tp917
I0
tp918
F0.7104
s(g243
I0
tp919
F1.0773935513803947
s((I240
I120
I-5
tp920
I0
tp921
F0.77568
s(g299
I1
tp922
F0.0
s((I160
I-30
I-2
tp923
I1
tp924
F0.0
s((I320
I-60
I4
tp925
I1
tp926
F0.0
s(g259
I0
tp927
F0.4992
s((I280
I150
I2
tp928
I1
tp929
F0.0
s((I200
I30
I4
tp930
I1
tp931
F0.0
s((I400
I0
I-7
tp932
I0
tp933
F1.226730471720698
s(g266
I0
tp934
F0.7104
s(g268
I0
tp935
F0.8915302612992
s(g270
I1
tp936
F0.0
s(g272
I1
tp937
F0.0
s(g317
I1
tp938
F0.0
s(g276
I1
tp939
F0.0
s((I80
I-60
I10
tp940
I1
tp941
F0.0
s(g278
I1
tp942
F0.0
s(g282
I0
tp943
F-191.52
s((I280
I-60
I-3
tp944
I0
tp945
F0.75648
s((I160
I-210
I7
tp946
I1
tp947
F0.0
s(g287
I1
tp948
F0.0
s((I280
I120
I0
tp949
I0
tp950
F0.77568
s(g785
I0
tp951
F0.9616524631080959
s(g289
I1
tp952
F0.0
s((I240
I120
I5
tp953
I0
tp954
F0.48
s((I120
I-120
I-4
tp955
I0
tp956
F0.6243776407747391
s(g303
I0
tp957
F1.077149647968944
s(g305
I0
tp958
F1.0537239274466574
s(g347
I0
tp959
F1.1464381167996491
s(g307
I0
tp960
F0.738816
s((I-80
I30
I-3
tp961
I1
tp962
F0.0
s((I360
I0
I-4
tp963
I1
tp964
F0.0
s((I120
I-90
I-4
tp965
I1
tp966
F0.0
s(g66
I1
tp967
F0.0
s(g315
I0
tp968
F0.77568
s((I120
I-60
I-8
tp969
I1
tp970
F0.0
s(g323
I0
tp971
F0.5110272
s(g325
I1
tp972
F0.0
s((I360
I60
I-4
tp973
I1
tp974
F0.0
s(g327
I0
tp975
F8.875447875488181
s((I240
I120
I6
tp976
I1
tp977
F0.0
s((I200
I-120
I-3
tp978
I0
tp979
F1.1047227472673953
s((I240
I-120
I10
tp980
I1
tp981
F0.0
s(g335
I0
tp982
F1.2573592454921805
s(g339
I1
tp983
F0.0
s(g165
I1
tp984
F0.0
s(g341
I0
tp985
F1.2340389959292635
s((I80
I-60
I-6
tp986
I1
tp987
F0.0
s((I240
I-180
I6
tp988
I1
tp989
F0.0
s((I320
I-30
I-1
tp990
I0
tp991
F1.2240298285234847
s((I200
I-180
I-5
tp992
I0
tp993
F1.0764918933946368
s(g351
I0
tp994
F25.61847115776
s((I360
I-60
I-1
tp995
I0
tp996
F1.0855386906623998
s((I280
I0
I-6
tp997
I1
tp998
F0.0
s(g355
I1
tp999
F0.0
s(g357
I0
tp1000
F0.7804416000000001
s((I0
I-30
I5
tp1001
I0
tp1002
F0.48
s((I-80
I30
I-2
tp1003
I1
tp1004
F0.0
s(g361
I0
tp1005
F0.48
s((I240
I30
I8
tp1006
I1
tp1007
F0.0
s(g365
I1
tp1008
F0.0
s(g369
I1
tp1009
F0.554496
s((I40
I-120
I-7
tp1010
I0
tp1011
F0.96092725248
s(g375
I0
tp1012
F1.158220778770464
s((I200
I-90
I5
tp1013
I0
tp1014
F0.77568
s((I240
I90
I7
tp1015
I0
tp1016
F0.48
s((I40
I60
I-1
tp1017
I1
tp1018
F0.0
s((I80
I-90
I10
tp1019
I1
tp1020
F0.0
s((I0
I-30
I2
tp1021
I1
tp1022
F0.0
s(g427
I0
tp1023
F-396.9479108803567
s((I80
I-90
I-8
tp1024
I1
tp1025
F0.0
s((I360
I0
I-9
tp1026
I0
tp1027
F1.2111462724259288
s(g389
I0
tp1028
F1.1814738233107682
s((I200
I-120
I10
tp1029
I1
tp1030
F0.0
s((I160
I-120
I-5
tp1031
I0
tp1032
F1.0693281381705082
s((I240
I-120
I9
tp1033
I0
tp1034
F0.9366327077741625
s((I200
I0
I2
tp1035
I0
tp1036
F0.8836780032
s((I360
I-30
I5
tp1037
I1
tp1038
F0.0
s((I40
I-120
I-6
tp1039
I1
tp1040
F0.0
s((I200
I60
I-3
tp1041
I0
tp1042
F0.48
s((I120
I-120
I2
tp1043
I1
tp1044
F0.0
s((I320
I60
I8
tp1045
I1
tp1046
F0.0
s(g405
I1
tp1047
F0.0
s((I200
I60
I3
tp1048
I0
tp1049
F0.7296
s(g409
I1
tp1050
F0.0
s(g419
I0
tp1051
F1.2268572374792928
s((I200
I-150
I8
tp1052
I1
tp1053
F0.0
s((I400
I-60
I-8
tp1054
I1
tp1055
F0.0
s((I80
I30
I-4
tp1056
I0
tp1057
F0.48
s((I160
I-120
I5
tp1058
I0
tp1059
F0.730368
s((I280
I150
I-3
tp1060
I1
tp1061
F0.0
s((I200
I60
I8
tp1062
I0
tp1063
F0.48
s((I80
I-150
I-2
tp1064
I0
tp1065
F0.91358208
s(g431
I0
tp1066
F1.16764354307874
s(g435
I1
tp1067
F0.0
s((I240
I-120
I-4
tp1068
I1
tp1069
F0.0
s(g437
I1
tp1070
F0.0
s(g439
I0
tp1071
F1.1556462200283613
s((I360
I-30
I0
tp1072
I0
tp1073
F0.48
s((I80
I-60
I-7
tp1074
I0
tp1075
F1.5501098876762553
s(g449
I1
tp1076
F0.0
s(g497
I1
tp1077
F0.0
s((I240
I-90
I5
tp1078
I0
tp1079
F0.54528
s((I80
I-30
I-2
tp1080
I1
tp1081
F0.0
s((I200
I90
I7
tp1082
I0
tp1083
F0.4992
s((I40
I120
I-9
tp1084
I0
tp1085
F0.48
s((I160
I-120
I-2
tp1086
I1
tp1087
F0.0
s(g465
I0
tp1088
F0.9850817740799999
s((I160
I-120
I6
tp1089
I1
tp1090
F0.0
s((I280
I90
I5
tp1091
I0
tp1092
F0.6006053905367039
s((I200
I-120
I-9
tp1093
I0
tp1094
F1.1931830515935133
s(g527
I1
tp1095
F0.0
s((I280
I60
I1
tp1096
I0
tp1097
F1.1341717163373968
s(g469
I1
tp1098
F0.0
s(g471
I1
tp1099
F0.0
s(g475
I0
tp1100
F1.2138908797402064
s((I0
I-90
I-6
tp1101
I1
tp1102
F0.0
s((I0
I-30
I-5
tp1103
I0
tp1104
F17.667967699335442
s((I120
I-120
I1
tp1105
I1
tp1106
F0.0
s(g481
I1
tp1107
F0.0
s(g483
I1
tp1108
F0.0
s((I240
I-90
I10
tp1109
I1
tp1110
F0.0
s(g545
I1
tp1111
F0.0
s((I200
I90
I4
tp1112
I1
tp1113
F0.0
s((I80
I-30
I-5
tp1114
I0
tp1115
F1.4264092740684777
s((I200
I-120
I-2
tp1116
I1
tp1117
F0.0
s(g485
I0
tp1118
F1.0611509428081733
s(g491
I1
tp1119
F0.0
s(g499
I0
tp1120
F0.0
s((I0
I-120
I-9
tp1121
I0
tp1122
F-399.87392
s(g503
I0
tp1123
F0.7941105230167955
s(g505
I0
tp1124
F14.3232
s(g509
I0
tp1125
F1.1014629439681394
s(g513
I1
tp1126
F0.0
s((I240
I90
I-1
tp1127
I0
tp1128
F0.48
s(g521
I0
tp1129
F13.077043199999999
s(g694
I0
tp1130
F1.0172923682105663
s((I320
I-90
I9
tp1131
I0
tp1132
F1.0462156849740933
s((I80
I-60
I7
tp1133
I0
tp1134
F0.48
s(g539
I1
tp1135
F0.0
s((I320
I-30
I9
tp1136
I0
tp1137
F1.0374671907982749
s(g541
I1
tp1138
F0.0
s((I40
I-30
I-2
tp1139
I1
tp1140
F0.0
s((I240
I-120
I-9
tp1141
I0
tp1142
F1.03656924543813
s((I160
I-150
I-5
tp1143
I0
tp1144
F0.7850934543581184
s((I0
I-60
I7
tp1145
I0
tp1146
F-400.0
s((I280
I60
I-1
tp1147
I0
tp1148
F0.48
s((I120
I-30
I-6
tp1149
I1
tp1150
F0.759207936
s(g578
I1
tp1151
F0.0
s((I40
I60
I0
tp1152
I0
tp1153
F0.77568
s((I-80
I-30
I-7
tp1154
I0
tp1155
F0.75648
s(g551
I0
tp1156
F0.48
s((I40
I-30
I9
tp1157
I0
tp1158
F6.100414557855183
s((I-40
I0
I1
tp1159
I0
tp1160
F14.13147061334835
s((I400
I-90
I-7
tp1161
I1
tp1162
F0.0
s(g557
I0
tp1163
F9.5568849000377
s((I240
I90
I2
tp1164
I0
tp1165
F0.48
s(g559
I1
tp1166
F0.0
s((I160
I-270
I10
tp1167
I1
tp1168
F0.0
s(g563
I1
tp1169
F0.0
s((I240
I30
I5
tp1170
I1
tp1171
F0.0
s(g568
I1
tp1172
F0.0
s((I120
I-120
I-1
tp1173
I1
tp1174
F1.1317037314223646
s(g570
I1
tp1175
F0.0
s((I360
I-90
I4
tp1176
I1
tp1177
F0.0
s((I320
I120
I-9
tp1178
I0
tp1179
F0.48
s((I360
I-30
I-4
tp1180
I1
tp1181
F0.0
s(g561
I0
tp1182
F0.48
s((I40
I-30
I6
tp1183
I1
tp1184
F0.0
s((I40
I-90
I-8
tp1185
I1
tp1186
F0.0
s(g584
I0
tp1187
F1.089691989825545
s(g642
I0
tp1188
F0.48
s(g588
I1
tp1189
F0.0
s((I160
I-90
I-1
tp1190
I0
tp1191
F1.1906736530778643
s(g592
I1
tp1192
F0.0
s(g594
I0
tp1193
F0.554496
s(g598
I0
tp1194
F0.8270426112
s(g658
I1
tp1195
F0.0
s(g604
I0
tp1196
F0.4992
s((I160
I-180
I-9
tp1197
I0
tp1198
F0.9211111322419201
s(g610
I1
tp1199
F0.0
s((I280
I-120
I-1
tp1200
I0
tp1201
F0.48
s((I320
I0
I-5
tp1202
I1
tp1203
F0.0
s(g616
I1
tp1204
F0.0
s((I80
I-60
I9
tp1205
I1
tp1206
F0.0
s(g620
I1
tp1207
F0.0
s(g1078
I1
tp1208
F0.0
s((I120
I0
I-7
tp1209
I0
tp1210
F8.21521675047198
s((I240
I-60
I2
tp1211
I0
tp1212
F0.48
s((I120
I-180
I-9
tp1213
I1
tp1214
F0.0
s((I240
I0
I0
tp1215
I1
tp1216
F0.0
s(g634
I1
tp1217
F0.0
s(g1080
I0
tp1218
F9.979368919418114
s(g225
I0
tp1219
F0.566170157714275
s((I200
I-240
I9
tp1220
I0
tp1221
F-399.92
s(g640
I0
tp1222
F12.825864045507219
s((I-40
I30
I-4
tp1223
I1
tp1224
F0.0
s((I280
I-180
I10
tp1225
I1
tp1226
F1.0572791396728534
s((I320
I60
I-5
tp1227
I1
tp1228
F0.0
s((I0
I-90
I0
tp1229
I1
tp1230
F0.0
s((I200
I-90
I-5
tp1231
I1
tp1232
F0.0
s(g652
I1
tp1233
F0.0
s(g656
I0
tp1234
F0.9004596469839855
s(g343
I0
tp1235
F0.9287605202316669
s(g455
I1
tp1236
F0.0
s(g662
I1
tp1237
F0.0
s((I120
I0
I-6
tp1238
I1
tp1239
F0.0
s(g700
I1
tp1240
F0.0
s(g666
I0
tp1241
F0.48
s((I200
I-120
I-5
tp1242
I0
tp1243
F1.1487656162208602
s((I40
I-90
I7
tp1244
I0
tp1245
F0.48
s((I280
I-90
I3
tp1246
I0
tp1247
F0.48
s((I200
I-240
I10
tp1248
I1
tp1249
F-15.519999999999996
s(g672
I0
tp1250
F0.5707924231269542
s(g913
I0
tp1251
F0.5110272
s(g1086
I0
tp1252
F1.0092213104958214
s(g676
I1
tp1253
F0.0
s((I40
I-60
I10
tp1254
I1
tp1255
F0.0
s((I280
I120
I3
tp1256
I0
tp1257
F1.112601006440448
s((I80
I0
I7
tp1258
I0
tp1259
F0.8185080872959998
s((I200
I30
I10
tp1260
I1
tp1261
F0.0
s((I240
I60
I1
tp1262
I1
tp1263
F0.0
s((I80
I0
I5
tp1264
I0
tp1265
F0.48
s(g686
I0
tp1266
F12.0
s((I160
I-150
I7
tp1267
I0
tp1268
F0.9385451520000001
s(g688
I1
tp1269
F0.0
s(g724
I1
tp1270
F0.0
s((I80
I-150
I-3
tp1271
I0
tp1272
F0.8472268799999999
s(g730
I0
tp1273
F0.48
s((I280
I-30
I0
tp1274
I1
tp1275
F0.0
s((I80
I-90
I1
tp1276
I0
tp1277
F1.0291782602712554
s(g702
I1
tp1278
F0.75648
s(g704
I0
tp1279
F1.103135913369412
s((I80
I0
I6
tp1280
I1
tp1281
F0.0
s(g713
I0
tp1282
F20.839583332564995
s((I0
I-150
I-5
tp1283
I0
tp1284
F-399.92
s((I320
I-30
I5
tp1285
I0
tp1286
F1.190741284676824
s((I360
I90
I-4
tp1287
I0
tp1288
F0.48
s(g1170
I0
tp1289
F0.77568
s((I280
I-90
I-1
tp1290
I1
tp1291
F0.0
s((I80
I-30
I7
tp1292
I0
tp1293
F0.54528
s((I320
I30
I1
tp1294
I0
tp1295
F1.152551227897487
s(g754
I1
tp1296
F0.0
s((I0
I150
I1
tp1297
I1
tp1298
F0.0
s((I-40
I0
I0
tp1299
I1
tp1300
F0.0
s((I200
I-210
I10
tp1301
I0
tp1302
F0.965507039232
s(g1139
I0
tp1303
F8.1792
s((I0
I-150
I-8
tp1304
I1
tp1305
F0.0
s((I320
I30
I-2
tp1306
I1
tp1307
F0.0
s((I240
I30
I10
tp1308
I1
tp1309
F0.0
s((I0
I-60
I4
tp1310
I0
tp1311
F-400.0
s((I280
I-180
I-6
tp1312
I0
tp1313
F0.8984064
s(g741
I0
tp1314
F1.1519148415422813
s(g744
I1
tp1315
F0.0
s(g746
I0
tp1316
F1.0075048835340457
s((I40
I0
I-2
tp1317
I1
tp1318
F0.0
s((I240
I-180
I4
tp1319
I1
tp1320
F0.0
s((I280
I120
I-5
tp1321
I0
tp1322
F0.48
s((I80
I-60
I-1
tp1323
I0
tp1324
F0.48
s((I80
I-150
I2
tp1325
I1
tp1326
F0.0
s(g978
I1
tp1327
F0.0
s(g759
I0
tp1328
F1.2157159098216455
s(g763
I0
tp1329
F0.8839662346133246
s((I360
I-60
I-4
tp1330
I1
tp1331
F0.0
s((I320
I30
I4
tp1332
I1
tp1333
F0.0
s(g767
I0
tp1334
F0.48
s((I200
I-150
I-6
tp1335
I1
tp1336
F0.9347747109352244
s(g771
I0
tp1337
F-399.9008
s(g580
I1
tp1338
F0.0
s(g774
I0
tp1339
F0.48
s((I280
I30
I-6
tp1340
I1
tp1341
F0.0
s((I40
I0
I9
tp1342
I0
tp1343
F11.662388323365933
s((I200
I60
I1
tp1344
I0
tp1345
F0.77568
s((I160
I-30
I-3
tp1346
I1
tp1347
F0.0
s((I280
I120
I-4
tp1348
I1
tp1349
F0.0
s((I160
I-90
I2
tp1350
I1
tp1351
F0.0
s(g781
I0
tp1352
F17.289300419598824
s(g783
I0
tp1353
F0.48
s((I240
I30
I-3
tp1354
I0
tp1355
F0.48
s(g787
I0
tp1356
F0.0
s((I40
I-150
I6
tp1357
I1
tp1358
F0.0
s((I280
I-60
I7
tp1359
I0
tp1360
F1.0907715961677613
s((I200
I-120
I4
tp1361
I1
tp1362
F0.0
s(g793
I1
tp1363
F0.0
s((I80
I0
I-4
tp1364
I1
tp1365
F0.0
s((I80
I-120
I2
tp1366
I1
tp1367
F0.0
s(g827
I1
tp1368
F0.0
s((I-80
I0
I3
tp1369
I0
tp1370
F1.5999999999999996
s((I280
I-120
I3
tp1371
I0
tp1372
F0.5881980523824988
s((I240
I-90
I7
tp1373
I0
tp1374
F0.4992
s((I320
I90
I-3
tp1375
I0
tp1376
F1.1648119070981375
s((I360
I-60
I1
tp1377
I0
tp1378
F0.842467098624
s(g799
I1
tp1379
F0.0
s((I160
I-60
I-4
tp1380
I1
tp1381
F0.0
s(g801
I0
tp1382
F1.0703942861004472
s(g803
I1
tp1383
F0.0
s(g851
I0
tp1384
F1.1312071391535055
s(g808
I0
tp1385
F0.48
s((I120
I30
I-1
tp1386
I0
tp1387
F0.48
s(g813
I1
tp1388
F0.0
s((I280
I-150
I-7
tp1389
I0
tp1390
F1.1855850680118865
s(g816
I1
tp1391
F0.0
s((I120
I-150
I8
tp1392
I0
tp1393
F1.0661761662264297
s((I200
I30
I6
tp1394
I1
tp1395
F0.0
s((I160
I-210
I5
tp1396
I0
tp1397
F0.48
s((I240
I-180
I-1
tp1398
I0
tp1399
F0.77568
s((I320
I-150
I-9
tp1400
I0
tp1401
F0.48
s((I200
I0
I6
tp1402
I0
tp1403
F0.77568
s(g824
I0
tp1404
F0.7104
s(g829
I1
tp1405
F0.0
s(g832
I1
tp1406
F0.0
s((I80
I-60
I8
tp1407
I1
tp1408
F0.0
s(g835
I0
tp1409
F1.2081728153595646
s(g881
I0
tp1410
F0.9706950655790284
s((I40
I150
I-4
tp1411
I1
tp1412
F0.0
s((I80
I-60
I-9
tp1413
I0
tp1414
F6.128645436525773
s((I40
I180
I3
tp1415
I0
tp1416
F0.48
s(g748
I1
tp1417
F0.0
s(g845
I1
tp1418
F0.0
s(g847
I0
tp1419
F1.168422444686223
s((I320
I-60
I7
tp1420
I0
tp1421
F0.9138916884673768
s(g285
I1
tp1422
F0.0
s(g301
I0
tp1423
F1.6156690513920002
s(g854
I1
tp1424
F0.0
s(g856
I1
tp1425
F0.0
s(g858
I0
tp1426
F1.1458482829357761
s(g861
I0
tp1427
F0.555264
s(g864
I0
tp1428
F1.2171339900018183
s(g866
I1
tp1429
F0.0
s((I80
I60
I-5
tp1430
I0
tp1431
F0.48
s(g870
I1
tp1432
F0.0
s(g1223
I0
tp1433
F12.017026082554185
s(g874
I1
tp1434
F0.0
s(g876
I0
tp1435
F1.1773156368770559
s(g878
I1
tp1436
F0.0
s((I0
I150
I6
tp1437
I0
tp1438
F-399.92
s((I40
I-60
I6
tp1439
I0
tp1440
F7.129214910730298
s((I400
I0
I-6
tp1441
I1
tp1442
F1.1827739480303499
s((I320
I60
I5
tp1443
I0
tp1444
F0.77568
s(g883
I1
tp1445
F0.0
s((I280
I120
I-2
tp1446
I0
tp1447
F0.77568
s((I240
I120
I4
tp1448
I1
tp1449
F0.0
s(g890
I1
tp1450
F0.0
s(g574
I0
tp1451
F1.248229063876037
s(g896
I1
tp1452
F0.0
s((I80
I-60
I-8
tp1453
I1
tp1454
F0.0
s(g898
I1
tp1455
F0.0
s(g630
I0
tp1456
F1.4152415630661255
s((I320
I-30
I-4
tp1457
I0
tp1458
F0.5843202146304
s(g739
I1
tp1459
F0.0
s((I120
I-90
I3
tp1460
I0
tp1461
F0.776448
s(g907
I0
tp1462
F0.48
s((I200
I-180
I2
tp1463
I1
tp1464
F0.0
s((I200
I-270
I10
tp1465
I1
tp1466
F0.0
s((I320
I30
I-6
tp1467
I1
tp1468
F0.0
s(g946
I0
tp1469
F0.48
s((I280
I-90
I-8
tp1470
I0
tp1471
F0.48
s(g734
I1
tp1472
F0.0
s((I240
I-60
I9
tp1473
I1
tp1474
F0.0
s(g949
I1
tp1475
F0.0
s(g757
I0
tp1476
F0.9275142144
s((I120
I-180
I10
tp1477
I1
tp1478
F1.077388934774784
s(g433
I0
tp1479
F1.2284572914854568
s((I200
I-180
I-1
tp1480
I1
tp1481
F0.0
s((I280
I-120
I-5
tp1482
I0
tp1483
F1.1451251587797908
s((I320
I-150
I10
tp1484
I1
tp1485
F0.0
s(g925
I0
tp1486
F1.106509039128488
s(g961
I0
tp1487
F12.180836865697643
s(g930
I0
tp1488
F0.7801344
s(g932
I1
tp1489
F0.0
s((I40
I180
I-4
tp1490
I1
tp1491
F0.0
s(g1211
I1
tp1492
F0.0
s((I120
I0
I-9
tp1493
I0
tp1494
F0.8081510399999999
s((I280
I60
I5
tp1495
I0
tp1496
F1.1938057721762485
s((I280
I-90
I8
tp1497
I1
tp1498
F0.0
s(g940
I0
tp1499
F1.1584568309219763
s((I80
I30
I1
tp1500
I0
tp1501
F2.1721333760000006
s((I320
I-90
I-8
tp1502
I1
tp1503
F0.0
s((I80
I30
I4
tp1504
I0
tp1505
F17.230107095348295
s((I40
I-120
I9
tp1506
I0
tp1507
F0.75648
s((I160
I-30
I4
tp1508
I0
tp1509
F0.48
s(g953
I1
tp1510
F0.0
s((I240
I60
I-5
tp1511
I0
tp1512
F0.48
s((I280
I-60
I-2
tp1513
I1
tp1514
F0.0
s(g1033
I1
tp1515
F0.0
s((I200
I-150
I10
tp1516
I1
tp1517
F1.1968225785989473
s((I80
I90
I-6
tp1518
I0
tp1519
F0.48
s((I40
I30
I7
tp1520
I0
tp1521
F20.863999999999997
s((I160
I-120
I3
tp1522
I0
tp1523
F0.8029900799999999
s(g1074
I1
tp1524
F0.0
s((I120
I-30
I-9
tp1525
I0
tp1526
F0.8621240154210026
s((I240
I30
I6
tp1527
I0
tp1528
F1.0554883449309278
s(g955
I1
tp1529
F0.0
s(g969
I0
tp1530
F1.1341855057063823
s((I360
I-30
I8
tp1531
I0
tp1532
F1.15806635262514
s((I120
I-90
I-9
tp1533
I0
tp1534
F1.203544938607853
s((I120
F-270.0
I10
tp1535
I1
tp1536
F0.0
s(g973
I0
tp1537
F1.2023458695604727
s(g976
I0
tp1538
F0.48
s((I360
I0
I-8
tp1539
I1
tp1540
F0.0
s((I80
I30
I-7
tp1541
I1
tp1542
F0.0
s(g928
I0
tp1543
F0.48
s(g980
I0
tp1544
F1.1403534229098824
s((I280
I-150
I10
tp1545
I1
tp1546
F0.925704049262592
s((I160
I-120
I4
tp1547
I1
tp1548
F0.0
s((I160
I-90
I-3
tp1549
I0
tp1550
F1.1333029187596135
s(g986
I0
tp1551
F12.2429952
s((I120
I-60
I-4
tp1552
I1
tp1553
F0.0
s((I-40
I0
I-7
tp1554
I0
tp1555
F-182.7400192
s((I200
I60
I-2
tp1556
I1
tp1557
F0.0
s((I360
I60
I-8
tp1558
I1
tp1559
F0.0
s(g992
I1
tp1560
F0.0
s((I320
I-60
I9
tp1561
I0
tp1562
F1.2354395823424649
s((I0
I-30
I-3
tp1563
I0
tp1564
F21.823296644786527
s(g997
I0
tp1565
F0.48
s(g1001
I1
tp1566
F0.0
s(g1003
I0
tp1567
F3.07719957005021
s(g1037
I0
tp1568
F1.2254396184042886
s((I240
I90
I-2
tp1569
I0
tp1570
F0.48
s((I80
I-30
I-3
tp1571
I0
tp1572
F8.059815485224913
s(g1006
I0
tp1573
F1.1534308645859441
s((I320
I30
I3
tp1574
I0
tp1575
F1.0740021294181594
s((I-40
I0
I-6
tp1576
I1
tp1577
F0.0
s(g1010
I1
tp1578
F0.0
s(g1145
I1
tp1579
F0.0
s(g1013
I1
tp1580
F0.0
s((I0
I-120
I-1
tp1581
I1
tp1582
F0.7104
s((I-80
I30
I-6
tp1583
I1
tp1584
F0.0
s(g1015
I1
tp1585
F0.0
s((I320
I-60
I10
tp1586
I1
tp1587
F0.48
s(g1017
I0
tp1588
F0.77568
s((I80
I-90
I-5
tp1589
I0
tp1590
F0.7104
s(g1019
I0
tp1591
F0.8668176827784574
s((I80
I0
I-7
tp1592
I1
tp1593
F0.0
s(g1021
I0
tp1594
F9.855834653650339
s((I360
I90
I-1
tp1595
I1
tp1596
F0.0
s((I400
I0
I-9
tp1597
I0
tp1598
F1.1997856644588973
s((I80
I-150
I-1
tp1599
I1
tp1600
F0.0
s(g1026
I1
tp1601
F0.0
s((I400
I-120
I-7
tp1602
I0
tp1603
F1.1874652560096517
s((I360
I-30
I-1
tp1604
I0
tp1605
F1.1706393692995583
s(g1029
I0
tp1606
F1.1905584460577519
s((I360
I30
I-4
tp1607
I1
tp1608
F0.52608
s(g1031
I1
tp1609
F0.0
s((I120
I-150
I-9
tp1610
I1
tp1611
F0.0
s(g1039
I0
tp1612
F0.8638059417155981
s((I0
I30
I-6
tp1613
I1
tp1614
F0.0
s(g1041
I1
tp1615
F0.0
s((I0
I-30
I-8
tp1616
I1
tp1617
F0.0
s(g1043
I0
tp1618
F0.919332864
s((I280
I0
I7
tp1619
I0
tp1620
F0.48
s(g1045
I0
tp1621
F0.48
s((I280
I120
I-7
tp1622
I0
tp1623
F0.48
s((I160
I-150
I0
tp1624
I1
tp1625
F0.0
s(g1048
I1
tp1626
F0.0
s((I80
I-150
I4
tp1627
I1
tp1628
F0.0
s((I280
I-90
I-7
tp1629
I0
tp1630
F0.75648
s(g1052
I0
tp1631
F0.9028288742294461
s(g1054
I0
tp1632
F1.2784413097201668
s((I80
I30
I-8
tp1633
I0
tp1634
F0.77568
s((I200
I-120
I1
tp1635
I0
tp1636
F0.75648
s(g1058
I1
tp1637
F0.0
s((I80
I-30
I3
tp1638
I0
tp1639
F5.673317320476328
s(g1068
I0
tp1640
F1.173062134353095
s((I-80
I-30
I-8
tp1641
I1
tp1642
F0.0
s((I280
I0
I8
tp1643
I1
tp1644
F0.0
s((I240
I120
I-1
tp1645
I0
tp1646
F0.75648
s((I80
I-180
I-8
tp1647
I1
tp1648
F0.0
s((I120
I-60
I1
tp1649
I0
tp1650
F0.48
s((I240
I90
I-7
tp1651
I1
tp1652
F0.0
s((I80
I-30
I-1
tp1653
I0
tp1654
F9.595550842847324
s((I0
I-90
I-1
tp1655
I0
tp1656
F-400.0
s((I400
I-60
I-4
tp1657
I1
tp1658
F0.0
s(g1082
I1
tp1659
F0.0
s(g1084
I1
tp1660
F0.0
s((I240
I0
I-7
tp1661
I0
tp1662
F0.8199167999999999
s((I160
I-120
I-1
tp1663
I0
tp1664
F0.9722214008487936
s((I40
I-180
I9
tp1665
I0
tp1666
F0.8252153957449727
s(g1089
I0
tp1667
F0.90725376
s((I240
I-120
I-8
tp1668
I1
tp1669
F0.0
s((I160
I-150
I-8
tp1670
I1
tp1671
F0.0
s(g1093
I1
tp1672
F0.0
s((I80
I0
I-6
tp1673
I1
tp1674
F0.48
s(g894
I0
tp1675
F0.512098910208
s(g1103
I1
tp1676
F0.0
s((I-80
I-60
I9
tp1677
I0
tp1678
F-399.92
s((I120
I-60
I2
tp1679
I1
tp1680
F0.0
s(g1109
I0
tp1681
F1.238501082200594
s(g1112
I0
tp1682
F0.48
s((I280
I0
I3
tp1683
I0
tp1684
F0.830208
s(g1114
I1
tp1685
F0.0
s((I160
I-90
I0
tp1686
I1
tp1687
F0.0
s(g1152
I1
tp1688
F0.0
s((I160
I-30
I0
tp1689
I1
tp1690
F0.0
s(g115
I1
tp1691
F0.0
s((I280
I150
I0
tp1692
I0
tp1693
F0.48
s(g1121
I1
tp1694
F0.0
s((I160
I-30
I-1
tp1695
I1
tp1696
F0.0
s((I320
I0
I8
tp1697
I1
tp1698
F1.0706192626592796
s((I200
I-30
I5
tp1699
I0
tp1700
F1.0998305194754936
s((I160
I-150
I-3
tp1701
I1
tp1702
F0.0
s((I200
I-60
I-8
tp1703
I0
tp1704
F0.48
s(g1131
I1
tp1705
F0.0
s((I0
I0
I-8
tp1706
I1
tp1707
F14.741602458179738
s(g1133
I1
tp1708
F0.0
s(g1136
I1
tp1709
F0.0
s((I40
I-30
I-1
tp1710
I0
tp1711
F7.488
s((I240
I-60
I1
tp1712
I1
tp1713
F0.0
s((I40
I90
I-3
tp1714
I0
tp1715
F0.48
s(g1141
I1
tp1716
F0.0
s(g1143
I1
tp1717
F0.0
s((I120
I-150
I5
tp1718
I1
tp1719
F0.0
s(g1149
I0
tp1720
F1.0170300300562445
s((I320
I90
I-2
tp1721
I0
tp1722
F1.212741893834252
s((I320
I90
I-7
tp1723
I0
tp1724
F0.8443270712524801
s(g223
I1
tp1725
F0.0
s((I40
I150
I-3
tp1726
I0
tp1727
F0.48
s((I80
I0
I3
tp1728
I0
tp1729
F16.683648678955585
s(g1157
I1
tp1730
F0.0
s((I280
I-60
I-4
tp1731
I0
tp1732
F0.7104
s((I-40
I30
I-7
tp1733
I0
tp1734
F-400.0
s(g1167
I0
tp1735
F-399.9008
s((I80
I90
I-7
tp1736
I1
tp1737
F0.0
s((I0
I-60
I0
tp1738
I0
tp1739
F14.98375797202462
s((I80
I-180
I10
tp1740
I1
tp1741
F-400.0
s(g1202
I0
tp1742
F0.48
s((I280
I-90
I-9
tp1743
I0
tp1744
F0.48
s((I120
I-120
I5
tp1745
I0
tp1746
F0.92679168
s((I320
I-60
I-7
tp1747
I0
tp1748
F0.7104
s(g1651
I0
tp1749
F0.77568
s((I320
I-90
I10
tp1750
I1
tp1751
F0.0
s(g1319
I0
tp1752
F0.4992
s(g1653
I1
tp1753
F0.0
s((I320
I60
I-1
tp1754
I1
tp1755
F0.0
s(g1183
I0
tp1756
F8.615364002106066
s(g1185
I0
tp1757
F2.547481502023679
s((I200
I-120
I-4
tp1758
I1
tp1759
F0.0
s((I120
I-150
I6
tp1760
I1
tp1761
F0.0
s((I-40
I-30
I-9
tp1762
I1
tp1763
F20.71700423654635
s((I-40
I-30
I4
tp1764
I1
tp1765
F0.0
s(g1231
I0
tp1766
F1.0910467924832676
s(g990
I1
tp1767
F0.0
s((I280
I120
I4
tp1768
I1
tp1769
F0.0
s((I80
I-120
I7
tp1770
I0
tp1771
F0.54528
s((I280
I-30
I2
tp1772
I1
tp1773
F0.0
s(g1346
I0
tp1774
F0.48
s((I240
I-180
I-2
tp1775
I1
tp1776
F0.0
s(g1197
I1
tp1777
F0.0
s((I280
I-60
I-5
tp1778
I1
tp1779
F0.0
s((I400
I-90
I-8
tp1780
I1
tp1781
F0.0
s((I0
I-150
I-6
tp1782
I1
tp1783
F0.0
s((I320
I30
I10
tp1784
I1
tp1785
F0.0
s(g1209
I1
tp1786
F0.0
s((I320
I-30
I1
tp1787
I1
tp1788
F0.0
s((I200
I60
I10
tp1789
I0
tp1790
F1.196376222580722
s((I360
I-30
I-9
tp1791
I0
tp1792
F0.52608
s(g1215
I0
tp1793
F1.01093376
s(g141
I1
tp1794
F0.0
s((I80
I-150
I-6
tp1795
I1
tp1796
F0.0
s((I240
I120
I-3
tp1797
I0
tp1798
F0.4992
s(g1220
I1
tp1799
F0.0
s((I200
I-90
I1
tp1800
I0
tp1801
F0.8204500991999999
s(g806
I1
tp1802
F0.0
s((I400
I-30
I-2
tp1803
I1
tp1804
F0.0
s((I80
I-90
I6
tp1805
I1
tp1806
F0.0
s(g1225
I0
tp1807
F-18.52662886399999
s((I160
I30
I10
tp1808
I1
tp1809
F0.0
s((I240
I-90
I-6
tp1810
I0
tp1811
F1.0030338809266177
s(g1238
I0
tp1812
F11.14413032945772
s((I0
I-150
I-9
tp1813
I0
tp1814
F-400.0
s((I160
I90
I9
tp1815
I0
tp1816
F0.6719999999999999
s(g1242
I1
tp1817
F0.0
s(g1244
I1
tp1818
F0.0
s((I80
I-30
I4
tp1819
I1
tp1820
F0.0
s(g1246
I1
tp1821
F0.0
s((I240
I120
I-2
tp1822
I1
tp1823
F0.0
s(g1248
I0
tp1824
F-479.965099925504
s((I320
I-30
I-6
tp1825
I1
tp1826
F0.0
s((I400
I-90
I-5
tp1827
I0
tp1828
F1.186002201485599
s(g1256
I1
tp1829
F0.0
s(g915
I1
tp1830
F0.0
s(g1287
I1
tp1831
F0.0
s(g1260
I0
tp1832
F1.1940536368019918
s((I200
I60
I7
tp1833
I0
tp1834
F0.82176
s(g1264
I1
tp1835
F0.0
s(g1267
I1
tp1836
F0.0
s(g1297
I0
tp1837
F-400.0
s((I240
I0
I-9
tp1838
I0
tp1839
F0.75648
s((I360
I30
I0
tp1840
I0
tp1841
F1.0853435503093218
s((I120
I-30
I-7
tp1842
I0
tp1843
F0.8638073199594284
s(g1271
I1
tp1844
F0.0
s(g1274
I0
tp1845
F0.48
s(g253
I0
tp1846
F0.939988992
s((I280
I-60
I-6
tp1847
I1
tp1848
F0.0
s(g1276
I1
tp1849
F0.0
s((I320
I-30
I-2
tp1850
I0
tp1851
F1.2063133052983959
s((I240
I-90
I1
tp1852
I0
tp1853
F0.9928089599999999
s((I200
I60
I0
tp1854
I1
tp1855
F0.0
s(g1280
I0
tp1856
F1.6956194095103996
s(g1310
I1
tp1857
F2.373007913855326
s((I360
I-60
I7
tp1858
I0
tp1859
F0.48
s(g1283
I1
tp1860
F0.0
s((I160
I-120
I-6
tp1861
I1
tp1862
F0.0
s(g1285
I1
tp1863
F0.0
s((I240
I90
I-3
tp1864
I1
tp1865
F0.0
s((I280
I60
I8
tp1866
I1
tp1867
F0.0
s((I-40
I0
I-9
tp1868
I0
tp1869
F19.82186602496
s(g1292
I1
tp1870
F0.0
s(g1294
I1
tp1871
F0.0
s(g1323
I1
tp1872
F0.0
s(g477
I0
tp1873
F-400.0
s((I40
I30
I4
tp1874
I1
tp1875
F0.0
s((I240
I-90
I9
tp1876
I1
tp1877
F0.0
s((I360
I90
I0
tp1878
I0
tp1879
F0.582796999262208
s((I240
I-90
I6
tp1880
I1
tp1881
F0.0
s(g1299
I0
tp1882
F21.41449068529739
s((I40
I150
I-5
tp1883
I0
tp1884
F0.48
s((I200
I-180
I-4
tp1885
I1
tp1886
F0.0
s((I40
I-150
I-8
tp1887
I1
tp1888
F0.0
s(g1304
I0
tp1889
F0.7104
s(g1213
I0
tp1890
F0.873295872
s(g1306
I0
tp1891
F0.48
s(g1308
I0
tp1892
F1.2216199478808027
s((I280
I-60
I0
tp1893
I1
tp1894
F0.0
s((I40
I-150
I2
tp1895
I1
tp1896
F0.0
s((I160
I30
I6
tp1897
I1
tp1898
F0.0
s(g1581
I0
tp1899
F-399.92
s((I320
I-90
I6
tp1900
I1
tp1901
F0.0
s(g1317
I0
tp1902
F22.1568
s((I320
I-30
I6
tp1903
I1
tp1904
F0.0
s((I360
I-60
I2
tp1905
I1
tp1906
F0.0
s(g1778
I0
tp1907
F0.48
s(g1321
I1
tp1908
F0.0
s((I400
I-60
I-9
tp1909
I0
tp1910
F1.228561034236159
s((I400
I-120
I-4
tp1911
I0
tp1912
F1.1223245914216857
s((I160
I-60
I-8
tp1913
I1
tp1914
F1.3746436645882274
s(g1330
I0
tp1915
F0.9813047800556659
s((I200
I-120
I3
tp1916
I1
tp1917
F0.0
s(g1335
I0
tp1918
F0.48
s((I160
I-30
I10
tp1919
I1
tp1920
F0.0
s((I200
I-210
I-8
tp1921
I1
tp1922
F0.894599566589952
s(g1883
I1
tp1923
F0.0
s(g1342
I1
tp1924
F0.0
s(g1344
I1
tp1925
F0.0
s(g1386
I1
tp1926
F0.0
s(g1348
I0
tp1927
F0.48
s(g1350
I0
tp1928
F1.0216393833372304
s(g1354
I1
tp1929
F0.0
s((I200
I-150
I-2
tp1930
I1
tp1931
F1.1633584311822591
s((I80
I30
I-5
tp1932
I1
tp1933
F0.0
s((I0
I-60
I10
tp1934
I1
tp1935
F-398.37690765458785
s(g1357
I0
tp1936
F0.8201930872845238
s(g1359
I1
tp1937
F0.0
s(g1361
I0
tp1938
F0.7996161696989185
s(g1398
I1
tp1939
F0.0
s((I360
I60
I3
tp1940
I0
tp1941
F0.0
s((I40
I0
I5
tp1942
I0
tp1943
F11.3620385588488
s(g1364
I0
tp1944
F2.5706494868867376
s(g1366
I0
tp1945
F1.0771907036082558
s((I240
I-90
I-3
tp1946
I0
tp1947
F0.48
s(g1369
I1
tp1948
F0.0
s(g1373
I1
tp1949
F0.0
s(g1375
I1
tp1950
F0.0
s((I360
I-60
I-2
tp1951
I1
tp1952
F0.0
s((I40
I-30
I10
tp1953
I1
tp1954
F0.0
s(g1377
I1
tp1955
F0.0
s((I-40
I-30
I-4
tp1956
I1
tp1957
F0.0
s(g1380
I0
tp1958
F1.15156596134483
s((I360
I-90
I-8
tp1959
I1
tp1960
F0.0
s((I240
I30
I7
tp1961
I0
tp1962
F1.1079364773338665
s(g1789
I1
tp1963
F0.0
s((I80
I30
I0
tp1964
I1
tp1965
F0.0
s((I40
I0
I6
tp1966
I1
tp1967
F0.0
s(g1389
I1
tp1968
F0.0
s((I160
I-180
I-8
tp1969
I1
tp1970
F0.0
s((I360
I-30
I4
tp1971
I0
tp1972
F1.2109321045057095
s((I320
I-60
I-1
tp1973
I1
tp1974
F0.0
s((I120
I-90
I-7
tp1975
I1
tp1976
F0.0
s(g1394
I0
tp1977
F0.77568
s(g1396
I1
tp1978
F0.0
s(g1400
I1
tp1979
F0.0
s((I40
I180
I-1
tp1980
I0
tp1981
F0.48
s(g1437
I1
tp1982
F0.0
s(g1407
I0
tp1983
F0.4992
s((I240
I-30
I-8
tp1984
I1
tp1985
F0.0
s(g401
I0
tp1986
F23.144849279384495
s(g1411
I0
tp1987
F0.48
s((I200
I-30
I8
tp1988
I1
tp1989
F0.0
s(g1415
I1
tp1990
F0.0
s((I160
I0
I10
tp1991
I0
tp1992
F0.9777286875497327
s((I200
I-30
I7
tp1993
I0
tp1994
F0.6345042200963398
s((I120
I-90
I0
tp1995
I1
tp1996
F0.0
s(g1420
I1
tp1997
F0.0
s((I320
I0
I1
tp1998
I0
tp1999
F0.52608
s((I200
I-90
I-3
tp2000
I0
tp2001
F1.0719606384560703
s(g143
I1
tp2002
F0.0
s((I40
I-30
I-7
tp2003
I0
tp2004
F21.338385047764326
s((I200
I-120
I6
tp2005
I1
tp2006
F0.0
s((I360
I-30
I7
tp2007
I0
tp2008
F1.0774340520475536
s((I200
I-180
I-9
tp2009
I0
tp2010
F1.1416327089447291
s((I120
I-90
I-6
tp2011
I1
tp2012
F0.0
s(g1470
I1
tp2013
F0.0
s((I240
I-150
I-5
tp2014
I0
tp2015
F1.0596025081325025
s(g1441
I0
tp2016
F0.0
s(g1473
I0
tp2017
F1.15953218071706
s(g1443
I1
tp2018
F0.0
s((I80
I-120
I-5
tp2019
I0
tp2020
F0.8196656332800001
s((I320
I0
I2
tp2021
I1
tp2022
F0.0
s(g1448
I0
tp2023
F0.48
s((I360
I30
I3
tp2024
I0
tp2025
F0.0
s((I240
I-210
I9
tp2026
I0
tp2027
F-37.91999999999999
s((I120
I0
I-1
tp2028
I1
tp2029
F0.0
s(g1453
I0
tp2030
F1.5840969554161246
s((I240
I-150
I-8
tp2031
I1
tp2032
F0.0
s((I40
I-120
I10
tp2033
I1
tp2034
F3.4544428941311995
s((I400
I30
I-9
tp2035
I0
tp2036
F1.129191702472741
s(g1460
I1
tp2037
F0.0
s((I240
I-150
I-9
tp2038
I0
tp2039
F1.0055588862861518
s(g1463
I0
tp2040
F0.48
s((I360
I90
I-2
tp2041
I1
tp2042
F0.0
s(g1465
I0
tp2043
F-479.9657216
s((I200
I-150
I7
tp2044
I0
tp2045
F1.1133959367285862
s((I320
I0
I7
tp2046
I0
tp2047
F1.0583403787733434
s((I240
I-210
I-9
tp2048
I0
tp2049
F0.48
s((I-40
I-30
I6
tp2050
I1
tp2051
F18.185719138330406
s((I40
I-30
I-8
tp2052
I1
tp2053
F0.0
s(g1504
I1
tp2054
F0.0
s(g1477
I0
tp2055
F-479.9657216
s((I240
I-120
I-3
tp2056
I0
tp2057
F1.1915935062568597
s(g1508
I1
tp2058
F0.0
s(g1482
I1
tp2059
F0.0
s((I80
I-120
I5
tp2060
I0
tp2061
F1.0121669544939706
s(g1484
I0
tp2062
F1.0777174244510963
s((I320
I-60
I8
tp2063
I1
tp2064
F0.0
s((I280
I60
I-8
tp2065
I0
tp2066
F0.48
s(g1518
I1
tp2067
F0.0
s(g1490
I0
tp2068
F0.48
s((I200
I-150
I4
tp2069
I1
tp2070
F0.0
s((I200
I-180
I9
tp2071
I0
tp2072
F0.9643184949192932
s(g1493
I1
tp2073
F0.0
s((I40
I-90
I-3
tp2074
I0
tp2075
F0.9339149967765611
s(g1527
I1
tp2076
F0.0
s(g1495
I1
tp2077
F0.0
s((I280
I-30
I5
tp2078
I1
tp2079
F0.0
s(g1497
I0
tp2080
F1.1819910912628504
s(g1531
I1
tp2081
F0.0
s(g1502
I0
tp2082
F0.48
s((I0
I-30
I-6
tp2083
I1
tp2084
F0.0
s((I160
I90
I8
tp2085
I0
tp2086
F0.48
s(g1506
I1
tp2087
F0.0
s((I240
I60
I10
tp2088
I1
tp2089
F0.0
s(g1710
I1
tp2090
F0.0
s((I40
I-30
I0
tp2091
I1
tp2092
F0.0
s(g1511
I1
tp2093
F0.0
s((I160
I-150
I2
tp2094
I1
tp2095
F0.0
s((I0
I0
I-3
tp2096
I0
tp2097
F22.366734690807228
s((I280
I-60
I-1
tp2098
I0
tp2099
F0.4992
s((I80
I90
I-8
tp2100
I0
tp2101
F0.48
s((I240
I0
I5
tp2102
I0
tp2103
F0.48
s(g1516
I0
tp2104
F-479.9702747831982
s(g1520
I1
tp2105
F0.0
s((I320
I30
I0
tp2106
I1
tp2107
F0.0
s(g1522
I1
tp2108
F0.0
s((I280
I30
I-9
tp2109
I0
tp2110
F0.94627116023808
s((I240
I60
I3
tp2111
I0
tp2112
F0.7104
s(g1569
I1
tp2113
F0.0
s(g1525
I1
tp2114
F0.0
s(g1663
I1
tp2115
F0.0
s((I360
I0
I-2
tp2116
I0
tp2117
F1.219846568691456
s(g1533
I1
tp2118
F0.0
s((I400
I-90
I-4
tp2119
I1
tp2120
F0.0
s(g1539
I0
tp2121
F1.2255311304835705
s(g1718
I0
tp2122
F1.0018106238566402
s(g313
I1
tp2123
F0.0
s(g1545
I0
tp2124
F1.1494006008222903
s(g1754
I0
tp2125
F0.91358208
s(g1592
I0
tp2126
F1.02086923047198
s(g1547
I0
tp2127
F0.5497344
s((I240
I90
I8
tp2128
I1
tp2129
F0.77568
s(g1549
I1
tp2130
F0.0
s((I160
I-150
I-6
tp2131
I1
tp2132
F0.0
s(g1552
I0
tp2133
F0.9391383396568576
s(g1554
I1
tp2134
F0.0
s(g1556
I0
tp2135
F0.48
s(g1747
I1
tp2136
F0.0
s((I320
I90
I-6
tp2137
I0
tp2138
F0.5688807063551999
s((I400
I0
I-3
tp2139
I0
tp2140
F0.9556922847042365
s(g1561
I1
tp2141
F0.0
s(g1563
I1
tp2142
F0.0
s((I360
I60
I-3
tp2143
I0
tp2144
F1.2096273827774364
s(g529
I0
tp2145
F0.75648
s((I280
I90
I2
tp2146
I1
tp2147
F0.0
s(g1467
I0
tp2148
F0.48
s(g1571
I1
tp2149
F0.0
s((I160
I-120
I0
tp2150
I1
tp2151
F0.0
s((I200
I120
I1
tp2152
I0
tp2153
F0.77568
s((I200
I-60
I10
tp2154
I1
tp2155
F0.0
s((I360
I0
I4
tp2156
I1
tp2157
F0.0
s(g1574
I1
tp2158
F0.0
s((I120
I-30
I2
tp2159
I1
tp2160
F0.0
s(g1576
I0
tp2161
F-27.424000000000007
s(g868
I1
tp2162
F0.0
s(g2116
I1
tp2163
F0.0
s(g1583
I0
tp2164
F-398.8
s(g1586
I0
tp2165
F1.2437753072989464
s(g1589
I1
tp2166
F0.0
s((I280
I0
I-5
tp2167
I0
tp2168
F0.48
s(g1633
I1
tp2169
F0.0
s(g1597
I1
tp2170
F0.0
s((I-80
I0
I-9
tp2171
I0
tp2172
F1.2272504263300608
s(g1602
I1
tp2173
F0.0
s((I40
I-180
I10
tp2174
I1
tp2175
F0.7860756480000001
s(g60
I1
tp2176
F0.0
s(g1645
I1
tp2177
F0.0
s((I240
I-210
I7
tp2178
I0
tp2179
F0.4992
s(g2003
I1
tp2180
F0.0
s((I80
I-150
I-9
tp2181
I0
tp2182
F0.53050368
s(g1655
I1
tp2183
F0.0
s(g1613
I0
tp2184
F-400.0
s(g1616
I0
tp2185
F19.58728253103574
s((I400
I-30
I-5
tp2186
I0
tp2187
F1.1177666285732788
s(g1619
I1
tp2188
F0.0
s(g423
I0
tp2189
F0.546048
s(g1622
I1
tp2190
F0.0
s(g1624
I0
tp2191
F0.5892110352384
s(g1205
I0
tp2192
F1.0327918533204277
s(g1627
I0
tp2193
F1.0417128097821229
s((I200
I0
I9
tp2194
I0
tp2195
F1.1802501633004776
s(g1091
I1
tp2196
F0.0
s(g1635
I1
tp2197
F0.0
s(g1638
I1
tp2198
F0.0
s((I200
I-210
I-6
tp2199
I1
tp2200
F0.0
s((I400
I30
I-8
tp2201
I1
tp2202
F0.0
s(g1641
I0
tp2203
F1.8304
s((I40
I-60
I1
tp2204
I0
tp2205
F0.4992
s((I120
I-120
I3
tp2206
I0
tp2207
F0.5704065024
s(g1643
I0
tp2208
F0.719616
s((I40
I60
I3
tp2209
I0
tp2210
F10.8992
s(g1647
I0
tp2211
F0.79853568
s((I80
I-150
I8
tp2212
I1
tp2213
F0.0
s(g1649
I1
tp2214
F0.0
s(g1692
I1
tp2215
F0.0
s(g1657
I0
tp2216
F1.07155105579008
s((I200
I0
I10
tp2217
I1
tp2218
F0.0
s(g1661
I1
tp2219
F0.0
s(g1665
I1
tp2220
F0.0
s(g1340
I0
tp2221
F0.7104
s(g1668
I0
tp2222
F0.5249712585179136
s(g1670
I0
tp2223
F1.1313786282873464
s((I40
I-120
I-3
tp2224
I0
tp2225
F0.4992
s(g555
I0
tp2226
F0.0
s(g1673
I0
tp2227
F0.617600259363325
s(g1701
I0
tp2228
F0.77568
s((I40
I-60
I2
tp2229
I1
tp2230
F0.0
s(g1677
I1
tp2231
F0.0
s(g1679
I0
tp2232
F0.48
s(g331
I0
tp2233
F0.52608
s((I120
I30
I-5
tp2234
I0
tp2235
F0.48
s((I0
I-60
I-1
tp2236
I1
tp2237
F0.0
s(g201
I1
tp2238
F0.0
s(g1686
I0
tp2239
F1.2034693986524994
s(g1721
I1
tp2240
F0.0
s(g1689
I0
tp2241
F0.48
s((I40
I-120
I-2
tp2242
I1
tp2243
F0.0
s(g293
I1
tp2244
F0.0
s((I40
I-210
I10
tp2245
I1
tp2246
F0.7296
s(g1697
I0
tp2247
F0.9308192988599625
s(g1699
I1
tp2248
F0.0
s(g1731
I1
tp2249
F0.0
s(g1736
I0
tp2250
F0.48
s((I280
I-120
I2
tp2251
I1
tp2252
F0.0
s(g1738
I1
tp2253
F0.0
s((I280
I-210
I-9
tp2254
I0
tp2255
F0.58549248
s((I40
I-60
I-6
tp2256
I0
tp2257
F0.9641472
s(g1706
I0
tp2258
F-183.424
s((I240
I-120
I7
tp2259
I1
tp2260
F0.0
s((I0
I0
I1
tp2261
I0
tp2262
F14.8868448256
s((I240
I-120
I-2
tp2263
I0
tp2264
F0.9401958740982621
s(g1714
I1
tp2265
F0.0
s((I240
I120
I-4
tp2266
I1
tp2267
F0.0
s(g1733
I1
tp2268
F0.0
s((I80
I-120
I8
tp2269
I1
tp2270
F0.0
s(g264
I0
tp2271
F-34.38960639999999
s((I240
I60
I-4
tp2272
I1
tp2273
F0.0
s(g1726
I1
tp2274
F0.0
s(g1723
I1
tp2275
F0.48
s((I280
I30
I8
tp2276
I1
tp2277
F0.48
s((I240
I-60
I6
tp2278
I1
tp2279
F0.0
s(g1728
I1
tp2280
F0.0
s(g523
I0
tp2281
F0.48
s((I0
I0
I2
tp2282
I1
tp2283
F0.0
s((I280
I-150
I-9
tp2284
I0
tp2285
F1.148096737790297
s((I40
I30
I3
tp2286
I0
tp2287
F16.6147072
s((I120
I-30
I-4
tp2288
I1
tp2289
F0.0
s((I320
I-60
I5
tp2290
I1
tp2291
F0.0
s(g1740
I0
tp2292
F0.696546066432
s(g457
I0
tp2293
F0.8523264
s(g1745
I1
tp2294
F0.0
s((I80
I150
I-6
tp2295
I0
tp2296
F0.48
s(g459
I0
tp2297
F0.5110272
s(g1772
I0
tp2298
F0.48
s(g1787
I0
tp2299
F0.8992418402145399
s(g1750
I0
tp2300
F1.1769151083060123
s((I240
I-120
I1
tp2301
I0
tp2302
F1.0635361952490676
s(g1827
I1
tp2303
F0.0
s((I280
I90
I7
tp2304
I1
tp2305
F0.0
s((I160
I-90
I-6
tp2306
I1
tp2307
F0.0
s(g1758
I0
tp2308
F1.1521516311116797
s(g1760
I0
tp2309
F1.0367878024396802
s(g1764
I0
tp2310
F18.374166028626163
s(g1885
I0
tp2311
F0.6131867677989273
s(g1810
I1
tp2312
F0.0
s(g1768
I0
tp2313
F0.9841058652880896
s(g1770
I1
tp2314
F1.1504237309822238
s((I80
I0
I0
tp2315
I1
tp2316
F0.0
s(g1775
I0
tp2317
F0.77568
s((I160
I-150
I10
tp2318
I1
tp2319
F1.0582155197740524
s((I240
I-120
I2
tp2320
I1
tp2321
F0.0
s(g42
I1
tp2322
F0.0
s((I120
I-60
I-2
tp2323
I0
tp2324
F1.1686222183140447
s(g1780
I0
tp2325
F1.2100591581062137
s((I40
I-150
I-6
tp2326
I1
tp2327
F0.0
s(g903
I0
tp2328
F0.48
s(g1782
I0
tp2329
F-399.904
s(g1784
I0
tp2330
F1.0781555067234505
s(g1791
I1
tp2331
F0.0
s(g761
I0
tp2332
F0.81619968
s(g1795
I0
tp2333
F0.9578496000000001
s(g1797
I1
tp2334
F0.0
s((I160
I-210
I8
tp2335
I1
tp2336
F0.0
s(g1800
I1
tp2337
F0.48
s((I240
I-150
I7
tp2338
I0
tp2339
F0.48
s(g1803
I0
tp2340
F1.15243187699712
s(g1805
I0
tp2341
F1.0574296663818596
s(g1808
I0
tp2342
F1.2234514940016357
s((I280
I-180
I-5
tp2343
I0
tp2344
F0.9459916800000001
s((I360
I-60
I0
tp2345
I1
tp2346
F0.0
s((I360
I-30
I-5
tp2347
I0
tp2348
F1.200838851382537
s((I40
I-180
I7
tp2349
I0
tp2350
F0.8505139163037696
s(g1064
I1
tp2351
F0.0
s(g1813
I1
tp2352
F-479.98400000000004
s(g1072
I1
tp2353
F1.1765370576366287
s(g1815
I1
tp2354
F0.0
s((I320
I0
I-3
tp2355
I0
tp2356
F0.48
s(g1819
I0
tp2357
F1.7543578821224033
s(g1822
I0
tp2358
F0.7104
s((I80
I-90
I2
tp2359
I1
tp2360
F0.7104
s(g1825
I0
tp2361
F0.5102592
s((I320
I-30
I-7
tp2362
I0
tp2363
F0.55262208
s((I0
I-30
I-4
tp2364
I1
tp2365
F0.0
s(g1762
I0
tp2366
F0.0
s((I-40
I0
I-1
tp2367
I0
tp2368
F24.577153869049706
s(g1864
I0
tp2369
F0.48
s((I120
I-90
I5
tp2370
I0
tp2371
F0.9305088
s(g1833
I1
tp2372
F0.0
s(g1703
I1
tp2373
F0.0
s((I360
I-30
I-8
tp2374
I1
tp2375
F0.0
s(g1940
I1
tp2376
F1.0895461718163455
s(g1105
I0
tp2377
F0.8344117248
s(g1838
I1
tp2378
F0.0
s(g1878
I1
tp2379
F0.0
s((I120
I-120
I10
tp2380
I1
tp2381
F0.0
s((I200
I-90
I4
tp2382
I0
tp2383
F0.77568
s((I360
I-90
I-9
tp2384
I0
tp2385
F1.1236001697417726
s(g1842
I1
tp2386
F0.0
s((I120
I-60
I10
tp2387
I1
tp2388
F0.0
s((I320
I90
I1
tp2389
I0
tp2390
F0.6012619385460973
s(g2362
I1
tp2391
F0.0
s((I120
I-60
I5
tp2392
I0
tp2393
F0.48
s(g1852
I1
tp2394
F0.0
s(g1854
I0
tp2395
F0.77568
s((I240
I30
I-5
tp2396
I0
tp2397
F0.776448
s((I0
I150
I7
tp2398
I1
tp2399
F0.0
s(g1858
I1
tp2400
F0.0
s((I120
I0
I-3
tp2401
I0
tp2402
F0.48
s((I240
I90
I1
tp2403
I1
tp2404
F0.0
s(g1861
I0
tp2405
F1.2032935525328463
s((I280
I60
I3
tp2406
I0
tp2407
F0.641315609973819
s((I200
I0
I3
tp2408
I1
tp2409
F0.0
s((I360
I0
I1
tp2410
I0
tp2411
F0.8069043586263439
s(g1866
I0
tp2412
F1.2448658798439203
s(g1392
I1
tp2413
F0.0
s(g1868
I1
tp2414
F7.733391684649907
s(g153
I1
tp2415
F0.0
s((I40
I0
I4
tp2416
I1
tp2417
F0.0
s((I280
I-30
I1
tp2418
I0
tp2419
F0.48
s((I200
I60
I4
tp2420
I1
tp2421
F0.0
s((I40
I0
I-7
tp2422
I0
tp2423
F12.0
s((I120
I-60
I6
tp2424
I1
tp2425
F0.0
s((I160
I-150
I8
tp2426
I0
tp2427
F0.8879222783999999
s(g1880
I0
tp2428
F0.9520528218390529
s((I280
I150
I-4
tp2429
I1
tp2430
F0.0
s(g1887
I0
tp2431
F1.0758172617285304
s((I360
I-90
I7
tp2432
I0
tp2433
F1.193096493829799
s((I120
I0
I-2
tp2434
I1
tp2435
F0.0
s((I360
I0
I2
tp2436
I1
tp2437
F0.0
s(g185
I1
tp2438
F0.0
s(g1743
I1
tp2439
F0.0
s(g1893
I0
tp2440
F0.48
s((I160
I-120
I9
tp2441
I0
tp2442
F1.2258013972701205
s((I40
I-60
I9
tp2443
I0
tp2444
F2.5065901435454316
s(g1895
I0
tp2445
F0.9305088
s((I200
I-30
I10
tp2446
I1
tp2447
F0.0
s((I280
I-120
I-9
tp2448
I0
tp2449
F0.48
s((I240
I-90
I2
tp2450
I1
tp2451
F0.0
s((I240
I-180
I-7
tp2452
I0
tp2453
F1.0325661527648478
s(g1900
I0
tp2454
F1.1825198630570388
s(g1610
I0
tp2455
F1.17338797951518
s(g1903
I0
tp2456
F1.124416303486998
s(g1905
I0
tp2457
F1.1163605375842636
s(g207
I0
tp2458
F-31.0848
s(g1909
I1
tp2459
F0.0
s((I280
I60
I-4
tp2460
I1
tp2461
F0.0
s((I360
I0
I-3
tp2462
I1
tp2463
F0.0
s(g1913
I0
tp2464
F0.0
s((I160
I-120
I10
tp2465
I1
tp2466
F0.0
s((I320
I90
I-1
tp2467
I1
tp2468
F0.0
s(g1919
I0
tp2469
F0.982910458162302
s(g1921
I0
tp2470
F0.0
s((I0
I-60
I-8
tp2471
I0
tp2472
F-397.77170224920866
s((I320
I30
I-3
tp2473
I0
tp2474
F0.48
s((I320
I-30
I-3
tp2475
I1
tp2476
F0.0
s(g1971
I1
tp2477
F0.0
s(g1930
I0
tp2478
F0.0
s((I160
I-60
I-9
tp2479
I0
tp2480
F1.1314310888037256
s((I160
I0
I9
tp2481
I0
tp2482
F0.88286208
s((I320
I30
I5
tp2483
I0
tp2484
F0.52155244412928
s((I360
I-60
I-5
tp2485
I1
tp2486
F0.0
s(g1980
I1
tp2487
F0.0
s(g1942
I1
tp2488
F0.0
s((I320
I-120
I-9
tp2489
I0
tp2490
F0.48
s(g383
I0
tp2491
F0.75648
s((I320
I-150
I-8
tp2492
I1
tp2493
F0.0
s(g1946
I1
tp2494
F0.0
s((I240
I-150
I-6
tp2495
I1
tp2496
F0.0
s((I80
I-90
I-3
tp2497
I0
tp2498
F4.662949789410678
s((I0
I-90
I10
tp2499
I1
tp2500
F-400.0
s(g1953
I0
tp2501
F4.517554079699705
s(g1956
I0
tp2502
F18.912
s((I0
I0
I9
tp2503
I0
tp2504
F21.864960000000004
s((I80
I-150
I1
tp2505
I0
tp2506
F0.9037307904
s(g387
I0
tp2507
F1.0093956366335999
s((I240
I-240
I10
tp2508
I1
tp2509
F0.48
s((I360
I30
I-8
tp2510
I1
tp2511
F0.0
s(g1959
I0
tp2512
F1.10816855015831
s((I40
I-150
I7
tp2513
I0
tp2514
F0.9258918286196736
s(g1961
I1
tp2515
F0.0
s(g1991
I1
tp2516
F0.0
s((I0
I30
I-8
tp2517
I1
tp2518
F0.0
s((I80
I-120
I0
tp2519
I1
tp2520
F0.0
s((I-80
I30
I-8
tp2521
I0
tp2522
F-400.0
s((I160
I-150
I-9
tp2523
I0
tp2524
F1.0541669018466961
s(g1966
I0
tp2525
F18.263967192520166
s(g1969
I0
tp2526
F1.0130433850579352
s((I80
I-120
I3
tp2527
I0
tp2528
F1.1249459095211207
s(g1973
I0
tp2529
F1.2102708064512802
s(g1024
I0
tp2530
F0.77568
s(g309
I0
tp2531
F1.1473198179373563
s(g1984
I0
tp2532
F0.60492489228288
s(g1988
I0
tp2533
F1.1131362263991555
s((I40
I-120
I-9
tp2534
I0
tp2535
F1.00167939981312
s(g1993
I1
tp2536
F0.0
s(g1995
I0
tp2537
F1.0971792558895241
s((I280
I-120
I0
tp2538
I1
tp2539
F0.0
s((I280
I-30
I-1
tp2540
I0
tp2541
F0.48
s(g1998
I1
tp2542
F0.0
s(g2000
I1
tp2543
F0.0
s((I320
I30
I-1
tp2544
I0
tp2545
F1.01668036608
s((I0
I0
I-5
tp2546
I0
tp2547
F26.20403874988032
s(g2005
I0
tp2548
F0.9515575348614816
s((I360
I30
I-5
tp2549
I1
tp2550
F0.0
s((I240
I-120
I-1
tp2551
I1
tp2552
F1.092890019662864
s(g2009
I1
tp2553
F0.0
s((I80
I-120
I6
tp2554
I1
tp2555
F0.0
s((I320
I60
I-3
tp2556
I0
tp2557
F1.13566143479808
s(g2011
I0
tp2558
F1.1869854826355284
s((I320
I60
I6
tp2559
I0
tp2560
F1.0966691573125535
s(g2014
I1
tp2561
F0.0
s((I80
I30
I-2
tp2562
I0
tp2563
F0.7104
s((I280
I30
I10
tp2564
I1
tp2565
F0.0
s((I80
I150
I-7
tp2566
I1
tp2567
F0.0
s(g2019
I1
tp2568
F0.783906816
s((I120
I-30
I3
tp2569
I0
tp2570
F4.546246221889537
s(g2021
I0
tp2571
F0.9236035436544
s((I160
I-90
I10
tp2572
I1
tp2573
F0.77749248
s(g2024
I1
tp2574
F1.1993190632201625
s((I240
I0
I4
tp2575
I1
tp2576
F0.0
s((I240
I-60
I5
tp2577
I1
tp2578
F0.0
s(g2026
I1
tp2579
F0.0
s(g2065
I1
tp2580
F0.0
s((I0
I-30
I-9
tp2581
I0
tp2582
F23.01777214003603
s((I80
I-120
I-9
tp2583
I0
tp2584
F1.0020702511693824
s(g2031
I0
tp2585
F1.0956216113177981
s((I400
I0
I-5
tp2586
I0
tp2587
F1.087861766563981
s(g2033
I0
tp2588
F-399.92
s(g2078
I0
tp2589
F0.555264
s(g2035
I1
tp2590
F0.0
s((I40
I150
I-2
tp2591
I0
tp2592
F0.48
s(g2038
I1
tp2593
F0.0
s(g648
I1
tp2594
F0.0
s(g2041
I0
tp2595
F0.48
s(g50
I0
tp2596
F1.031710752768
s(g2044
I1
tp2597
F0.0
s((I0
I0
I-2
tp2598
I1
tp2599
F16.992
s(g2046
I1
tp2600
F0.0
s(g2048
I1
tp2601
F0.0
s((I80
I-120
I-8
tp2602
I0
tp2603
F1.1003128077877247
s(g2050
I0
tp2604
F-189.89891584
s(g2052
I0
tp2605
F13.345207665692268
s(g2591
I1
tp2606
F0.0
s((I280
I-30
I8
tp2607
I1
tp2608
F0.0
s(g1164
I1
tp2609
F0.0
s(g2056
I1
tp2610
F0.0
s((I0
I30
I8
tp2611
I1
tp2612
F0.0
s(g2060
I1
tp2613
F0.0
s((I280
I-180
I-4
tp2614
I1
tp2615
F0.0
s(g2063
I0
tp2616
F1.2121705120627055
s((I240
I120
I7
tp2617
I0
tp2618
F0.48
s((I-40
I-30
I-5
tp2619
I0
tp2620
F24.6432768
s(g2069
I0
tp2621
F1.1697484992739178
s(g2071
I1
tp2622
F0.0
s((I120
I-150
I-7
tp2623
I0
tp2624
F0.5928659189759999
s((I240
I-210
I10
tp2625
I1
tp2626
F1.012839170365271
s(g413
I0
tp2627
F1.100023298641625
s(g2074
I1
tp2628
F0.0
s((I40
I-180
I8
tp2629
I1
tp2630
F0.0
s((I120
I-150
I3
tp2631
I0
tp2632
F0.9221798533634457
s((I-40
I30
I-5
tp2633
I1
tp2634
F-400.0
s((I320
I30
I9
tp2635
I0
tp2636
F1.0636743402015738
s(g429
I1
tp2637
F0.0
s((I400
I0
I-2
tp2638
I1
tp2639
F0.0
s((I120
I-120
I-6
tp2640
I1
tp2641
F0.0
s((I320
I60
I1
tp2642
I0
tp2643
F0.9275904
s(g2083
I0
tp2644
F20.823426091602755
s((I400
I-30
I-3
tp2645
I0
tp2646
F1.13253812994048
s((I360
I60
I-1
tp2647
I1
tp2648
F0.0
s((I240
I120
I8
tp2649
I1
tp2650
F0.0
s((I240
I30
I4
tp2651
I0
tp2652
F0.75648
s((I40
I180
I-3
tp2653
I0
tp2654
F0.48
s(g2091
I0
tp2655
F14.396094533468158
s((I320
I-210
I10
tp2656
I1
tp2657
F0.0
s(g2094
I0
tp2658
F1.1043509247934464
s(g2517
I0
tp2659
F-398.512
s(g2096
I1
tp2660
F0.0
s((I200
I120
I2
tp2661
I1
tp2662
F0.0
s(g2137
I1
tp2663
F0.0
s((I0
I-60
I2
tp2664
I1
tp2665
F0.0
s(g2102
I1
tp2666
F0.0
s(g2106
I0
tp2667
F1.0957859999138708
s((I240
I-210
I6
tp2668
I1
tp2669
F0.0
s(g2109
I1
tp2670
F0.0
s((I240
I30
I-1
tp2671
I0
tp2672
F0.48
s((I40
I0
I-1
tp2673
I0
tp2674
F18.57792
s(g2111
I1
tp2675
F0.0
s((I40
I-60
I-2
tp2676
I1
tp2677
F0.0
s((I120
I-90
I7
tp2678
I0
tp2679
F0.8419469104742471
s((I40
I-60
I7
tp2680
I0
tp2681
F10.675590170486016
s((I160
I-210
I6
tp2682
I1
tp2683
F0.0
s((I80
I-90
I-1
tp2684
I0
tp2685
F0.48
s(g917
I1
tp2686
F0.0
s((I80
I-150
I10
tp2687
I1
tp2688
F1.1323664881680386
s(g2119
I0
tp2689
F1.204878279274421
s((I240
I-180
I-9
tp2690
I0
tp2691
F1.1381170966504923
s((I120
I-120
I8
tp2692
I1
tp2693
F0.0
s(g237
I1
tp2694
F0.0
s((I80
I-150
I9
tp2695
I0
tp2696
F0.48
s((I280
I-120
I-3
tp2697
I1
tp2698
F0.0
s(g2128
I0
tp2699
F0.0
s(g2131
I0
tp2700
F0.8332008589413581
s((I40
I-120
I-5
tp2701
I0
tp2702
F0.8009035763492586
s((I320
I90
I3
tp2703
I0
tp2704
F0.48
s((I400
I-30
I-8
tp2705
I1
tp2706
F0.0
s((I40
I-60
I0
tp2707
I1
tp2708
F0.0
s(g2139
I1
tp2709
F0.0
s((I80
I-90
I8
tp2710
I1
tp2711
F0.0
s(g425
I0
tp2712
F0.7104
s((I0
I-60
I1
tp2713
I1
tp2714
F17.89841101538166
s(g2143
I1
tp2715
F0.0
s(g1695
I0
tp2716
F0.48
s((I360
I0
I-7
tp2717
I0
tp2718
F1.22325594384877
s((I280
I-60
I-7
tp2719
I0
tp2720
F0.48
s(g1290
I0
tp2721
F0.48
s((I280
I-120
I-2
tp2722
I0
tp2723
F0.48
s(g2150
I0
tp2724
F0.9601356316016639
s((I200
I-150
I9
tp2725
I0
tp2726
F1.0311498188602737
s(g2152
I1
tp2727
F0.0
s(g2633
I0
tp2728
F-4.652799999999999
s((I240
I30
I3
tp2729
I0
tp2730
F0.77196288
s(g173
I0
tp2731
F5.220205108069389
s(g2156
I0
tp2732
F1.1805197544213284
s((I120
I-60
I-3
tp2733
I0
tp2734
F0.957095873301353
s((I40
I0
I2
tp2735
I1
tp2736
F7.2
s((I120
I-120
I4
tp2737
I1
tp2738
F0.48
s(g1325
I0
tp2739
F1.0465424670719998
s(g239
I1
tp2740
F0.0
s(g2167
I1
tp2741
F0.0
s((I280
I90
I6
tp2742
I1
tp2743
F0.0
s((I80
I30
I3
tp2744
I0
tp2745
F13.1162624
s(g2171
I1
tp2746
F0.0
s(g2174
I0
tp2747
F-18.6662610944
s((I240
I60
I-2
tp2748
I0
tp2749
F0.58103808
s((I160
I-120
I7
tp2750
I0
tp2751
F1.1754560493776036
s(g2178
I1
tp2752
F0.0
s(g2181
I1
tp2753
F0.0
s((I280
I0
I-9
tp2754
I0
tp2755
F0.6101133011978708
s((I240
I-90
I-1
tp2756
I1
tp2757
F0.0
s(g1173
I0
tp2758
F0.0
s((I-80
I30
I-5
tp2759
I0
tp2760
F-400.0
s(g2186
I1
tp2761
F0.0
s((I240
I90
I-9
tp2762
I0
tp2763
F0.77568
s((I80
I-30
I-4
tp2764
I1
tp2765
F0.0
s(g576
I1
tp2766
F0.0
s((I200
I-90
I-7
tp2767
I0
tp2768
F1.126315305542244
s(g1161
I0
tp2769
F0.9455771409808564
s((I120
I0
I0
tp2770
I1
tp2771
F0.0
s(g2194
I1
tp2772
F0.0
s((I400
I-150
I-9
tp2773
I0
tp2774
F1.3222511092396876
s(g1332
I0
tp2775
F1.0972635854391999
s(g2199
I0
tp2776
F0.935196672
s((I0
I150
I-1
tp2777
I0
tp2778
F0.48
s((I80
I-90
I7
tp2779
I0
tp2780
F1.0212201321690637
s(g2201
I0
tp2781
F1.0866666708152652
s((I240
I150
I3
tp2782
I0
tp2783
F0.48
s(g2204
I1
tp2784
F0.0
s((I0
I-30
I-7
tp2785
I0
tp2786
F22.027576930383034
s(g2206
I1
tp2787
F0.0
s((I80
I30
I-3
tp2788
I1
tp2789
F0.0
s(g2209
I1
tp2790
F0.0
s((I240
I-90
I8
tp2791
I1
tp2792
F0.0
s(g2212
I0
tp2793
F1.0506604140193383
s((I240
I0
I-6
tp2794
I1
tp2795
F0.0
s(g988
I0
tp2796
F0.52608
s(g612
I0
tp2797
F0.77568
s(g2217
I0
tp2798
F1.2356226740343526
s(g1712
I0
tp2799
F0.48
s((I240
I0
I-2
tp2800
I1
tp2801
F0.0
s(g2647
I0
tp2802
F1.2044651842791418
s(g2224
I1
tp2803
F0.0
s(g2256
I1
tp2804
F0.0
s(g2229
I0
tp2805
F0.48
s((I280
I30
I-5
tp2806
I0
tp2807
F0.75648
s(g2259
I0
tp2808
F0.8454611287356211
s(g2007
I1
tp2809
F0.0
s((I-40
I0
I5
tp2810
I0
tp2811
F19.805900800000003
s(g2263
I1
tp2812
F0.0
s(g1229
I0
tp2813
F0.4992
s(g2234
I1
tp2814
F0.0
s(g2236
I0
tp2815
F0.52608
s((I400
I-60
I-3
tp2816
I0
tp2817
F1.1245548621004802
s(g2653
I1
tp2818
F0.0
s(g839
I0
tp2819
F0.48
s((I40
I90
I-2
tp2820
I1
tp2821
F0.48
s((I40
I-30
I-4
tp2822
I1
tp2823
F0.0
s(g664
I1
tp2824
F0.0
s(g86
I0
tp2825
F0.48
s(g963
I0
tp2826
F1.2095103199368358
s((I160
I-150
I-7
tp2827
I0
tp2828
F1.1830318216229463
s(g2242
I0
tp2829
F0.48
s(g920
I1
tp2830
F0.0
s(g2245
I0
tp2831
F-479.98400000000004
s((I200
I-60
I-7
tp2832
I1
tp2833
F0.0
s((I40
I-90
I-6
tp2834
I1
tp2835
F0.0
s(g2251
I0
tp2836
F1.0209902619124942
s((I40
I-30
I7
tp2837
I0
tp2838
F13.066274724922248
s(g2290
I0
tp2839
F0.8607625625149757
s((I40
I-90
I-7
tp2840
I0
tp2841
F1.109558870016
s(g2295
I1
tp2842
F0.0
s(g2261
I1
tp2843
F0.0
s(g1413
I1
tp2844
F0.0
s(g2159
I0
tp2845
F0.48
s(g2266
I0
tp2846
F0.54528
s(g2269
I0
tp2847
F1.1866544991387156
s(g2304
I0
tp2848
F0.75648
s((I40
I-150
I-9
tp2849
I0
tp2850
F0.9136127999999999
s(g2272
I0
tp2851
F0.48
s(g2276
I0
tp2852
F1.2432337875410913
s((I40
I-30
I4
tp2853
I1
tp2854
F0.0
s((I320
I120
I-8
tp2855
I1
tp2856
F0.0
s((I120
I-60
I-1
tp2857
I1
tp2858
F1.6672900918810158
s((I360
I-30
I-6
tp2859
I1
tp2860
F0.0
s((I280
I-60
I1
tp2861
I0
tp2862
F0.48
s(g2282
I0
tp2863
F17.256154578422855
s((I240
I0
I1
tp2864
I0
tp2865
F0.48
s(g2286
I1
tp2866
F0.0
s(g2288
I0
tp2867
F1.1287730056614764
s(g2323
I1
tp2868
F0.0
s((I240
I-150
I4
tp2869
I1
tp2870
F0.0
s((I320
I-90
I7
tp2871
I0
tp2872
F1.1761128591186765
s(g2301
I1
tp2873
F0.0
s((I160
I-90
I4
tp2874
I1
tp2875
F0.0
s((I160
I-60
I-7
tp2876
I0
tp2877
F1.1641580652845638
s(g2306
I0
tp2878
F1.2048631487671504
s((I240
I0
I2
tp2879
I1
tp2880
F0.0
s((I200
I-90
I2
tp2881
I1
tp2882
F0.0
s((I320
I0
I-2
tp2883
I1
tp2884
F0.0
s(g1060
I0
tp2885
F0.48
s((I120
I-150
I10
tp2886
I1
tp2887
F1.0889424649599106
s(g1116
I0
tp2888
F0.9789827284992
s((I280
I60
I9
tp2889
I1
tp2890
F0.0
s(g2315
I0
tp2891
F2.5245442412988335
s(g2318
I0
tp2892
F0.0
s(g2320
I0
tp2893
F1.1092524890888438
s((I280
I150
I-2
tp2894
I1
tp2895
F0.0
s(g2326
I0
tp2896
F0.75648
s((I360
I90
I-3
tp2897
I0
tp2898
F0.48
s(g1430
I1
tp2899
F0.0
s(g2800
I0
tp2900
F0.9597075455999999
s(g2367
I1
tp2901
F0.0
s((I0
I0
I0
tp2902
I1
tp2903
F12.0
s((I160
I-30
I1
tp2904
I1
tp2905
F0.0
s((I200
I-180
I-3
tp2906
I0
tp2907
F0.5212890465828863
s((I320
I-60
I1
tp2908
I0
tp2909
F1.1956899860984525
s((I80
I-120
I-2
tp2910
I0
tp2911
F1.0700164300800001
s(g2335
I0
tp2912
F0.48
s(g2338
I1
tp2913
F0.0
s(g2485
I0
tp2914
F0.6393912789862426
s((I200
I30
I8
tp2915
I1
tp2916
F0.0
s(g750
I0
tp2917
F-398.8
s(g2343
I1
tp2918
F0.0
s((I240
I30
I-8
tp2919
I1
tp2920
F0.0
s((I80
I-210
I10
tp2921
I1
tp2922
F0.0
s(g2345
I0
tp2923
F1.07208133705728
s((I200
I90
I8
tp2924
I1
tp2925
F0.0
s(g2347
I1
tp2926
F0.0
s(g2349
I1
tp2927
F0.0
s(g1599
I0
tp2928
F0.8022528
s(g1607
I0
tp2929
F1.2035438099043625
s((I-40
I-30
I3
tp2930
I0
tp2931
F13.76863398024708
s(g2355
I1
tp2932
F0.0
s(g1154
I1
tp2933
F0.0
s((I320
I60
I-6
tp2934
I1
tp2935
F1.135585678589952
s(g2359
I0
tp2936
F1.0868173342260161
s((I120
I-120
I-8
tp2937
I1
tp2938
F0.0
s(g2364
I0
tp2939
F16.639947227955226
s(g2403
I0
tp2940
F0.48
s((I40
I0
I-6
tp2941
I1
tp2942
F0.0
s(g1683
I1
tp2943
F0.0
s(g2370
I1
tp2944
F0.0
s(g2408
I0
tp2945
F0.5730000076799999
s(g626
I1
tp2946
F0.0
s((I0
I-150
I-7
tp2947
I0
tp2948
F-399.87392
s(g2374
I0
tp2949
F0.8161449246720001
s((I200
I120
I0
tp2950
I1
tp2951
F0.0
s((I240
I-30
I-9
tp2952
I0
tp2953
F1.0353607999488
s((I-40
I-30
I0
tp2954
I1
tp2955
F0.0
s(g1101
I0
tp2956
F0.48
s(g1178
I1
tp2957
F0.0
s(g711
I0
tp2958
F1.0953338518241278
s(g2380
I0
tp2959
F0.9140001898597945
s(g2384
I1
tp2960
F0.0
s((I240
I90
I-5
tp2961
I1
tp2962
F0.0
s((I40
I60
I4
tp2963
I1
tp2964
F0.0
s(g2387
I0
tp2965
F1.2242595578331612
s(g533
I0
tp2966
F0.9305088
s((I200
I-60
I-6
tp2967
I0
tp2968
F0.48
s(g2389
I1
tp2969
F0.0
s((I-40
I0
I2
tp2970
I1
tp2971
F12.890087424
s(g2392
I1
tp2972
F0.0
s(g2396
I1
tp2973
F0.0
s(g385
I1
tp2974
F0.0
s(g2401
I1
tp2975
F0.5481984
s((I40
I-90
I-9
tp2976
I0
tp2977
F8.46215328222413
s(g2406
I1
tp2978
F0.0
s((I0
I-60
I5
tp2979
I0
tp2980
F10.88828971087624
s(g2410
I1
tp2981
F0.0
s((I360
I-60
I-3
tp2982
I0
tp2983
F1.183787507991655
s((I360
I60
I-7
tp2984
I1
tp2985
F0.0
s(g1934
I0
tp2986
F-479.9657216
s((I280
I30
I-8
tp2987
I0
tp2988
F0.5908224835584
s(g2416
I0
tp2989
F16.704
s(g2418
I1
tp2990
F0.0
s(g2420
I0
tp2991
F0.75648
s(g493
I0
tp2992
F0.48
s(g2422
I1
tp2993
F0.0
s(g2424
I0
tp2994
F0.72534406397952
s(g2429
I0
tp2995
F0.48
s(g1932
I0
tp2996
F0.5102592
s(g2432
I1
tp2997
F0.0
s(g2434
I0
tp2998
F0.4992
s(g2471
I1
tp2999
F0.0
s(g2436
I0
tp3000
F1.0123610911622354
s(g995
I1
tp3001
F0.0
s(g2441
I1
tp3002
F0.0
s((I40
I120
I-6
tp3003
I0
tp3004
F0.48
s(g2443
I1
tp3005
F0.0
s(g2446
I0
tp3006
F1.1997416938381398
s(g2448
I1
tp3007
F0.0
s(g2475
I0
tp3008
F0.515466756096
s(g2450
I0
tp3009
F1.111132148387021
s((I0
I-120
I0
tp3010
I0
tp3011
F-400.0
s(g2452
I1
tp3012
F0.0
s((I240
I-210
I-8
tp3013
I1
tp3014
F0.0
s((I240
I0
I-1
tp3015
I0
tp3016
F0.958070784
s(g2460
I0
tp3017
F0.77568
s(g888
I1
tp3018
F0.0
s((I120
I30
I-4
tp3019
I1
tp3020
F0.0
s((I40
I-150
I4
tp3021
I1
tp3022
F0.0
s(g1258
I1
tp3023
F0.0
s(g2465
I0
tp3024
F1.1126563985529352
s((I80
I-120
I4
tp3025
I1
tp3026
F0.0
s(g2467
I0
tp3027
F1.2254639290118694
s(g1595
I0
tp3028
F0.9939849963110401
s(g507
I1
tp3029
F0.7836585984000001
s((I120
I-120
I-2
tp3030
I1
tp3031
F0.0
s((I360
I60
I-5
tp3032
I0
tp3033
F1.1769686470375555
s(g909
I1
tp3034
F0.0
s(g2473
I1
tp3035
F0.0
s(g2521
I1
tp3036
F0.0
s((I240
I-90
I-7
tp3037
I1
tp3038
F0.0
s(g2085
I1
tp3039
F0.0
s(g1262
I0
tp3040
F0.5704065024
s(g2481
I1
tp3041
F0.0
s(g2483
I1
tp3042
F0.0
s(g519
I0
tp3043
F1.1144524654529713
s(g2489
I1
tp3044
F0.0
s(g2492
I0
tp3045
F0.9886822825797441
s(g2495
I0
tp3046
F1.1395349873352238
s(g2497
I1
tp3047
F0.0
s(g2146
I0
tp3048
F1.1799631372539805
s((I120
I30
I-2
tp3049
I1
tp3050
F0.0
s(g2499
I0
tp3051
F-15.324799999999996
s(g2503
I1
tp3052
F0.0
s(g2505
I1
tp3053
F0.0
s((I0
I0
I-4
tp3054
I1
tp3055
F0.0
s(g2510
I0
tp3056
F0.75648
s(g2278
I0
tp3057
F0.52608
s((I120
I0
I10
tp3058
I1
tp3059
F0.0
s(g2513
I1
tp3060
F0.0
s(g2508
I0
tp3061
F-479.95726966784
s((I280
I-30
I10
tp3062
I1
tp3063
F0.0
s(g2519
I0
tp3064
F0.9010669303725328
s((I-40
I30
I-6
tp3065
I0
tp3066
F-414.752
s(g2540
I1
tp3067
F0.0
s(g2523
I1
tp3068
F0.0
s(g2527
I1
tp3069
F0.0
s(g2544
I1
tp3070
F0.0
s(g1975
I0
tp3071
F1.2011315301651406
s(g1874
I0
tp3072
F16.913203199999998
s((I80
I-30
I-8
tp3073
I1
tp3074
F0.0
s((I40
I-60
I-7
tp3075
I1
tp3076
F0.0
s((I360
I30
I-3
tp3077
I1
tp3078
F0.7703194114883373
s(g2559
I1
tp3079
F0.0
s(g2562
I1
tp3080
F0.0
s((I240
I90
I-8
tp3081
I0
tp3082
F0.77568
s((I280
I-120
I-4
tp3083
I1
tp3084
F0.0
s((I240
I-180
I1
tp3085
I0
tp3086
F0.7782912000000001
s((I80
I0
I9
tp3087
I1
tp3088
F0.0
s((I160
I-30
I-4
tp3089
I0
tp3090
F0.886272
s(g2534
I1
tp3091
F0.0
s((I400
I0
I-4
tp3092
I1
tp3093
F1.1766384721472756
s(g1096
I1
tp3094
F0.0
s((I320
I60
I7
tp3095
I0
tp3096
F1.2080258825458516
s(g2538
I0
tp3097
F0.48
s((I200
I-180
I3
tp3098
I0
tp3099
F0.48
s((I280
I90
I3
tp3100
I0
tp3101
F1.0912072747649975
s((I320
I-180
I10
tp3102
I1
tp3103
F0.48
s((I200
I-90
I-6
tp3104
I0
tp3105
F1.111624690015047
s(g2546
I1
tp3106
F0.0
s((I120
I-150
I2
tp3107
I1
tp3108
F0.0
s(g2551
I0
tp3109
F0.6105060069024273
s((I240
I-180
I2
tp3110
I1
tp3111
F0.48
s(g1227
I0
tp3112
F1.1391179489280001
s((I200
I-30
I9
tp3113
I0
tp3114
F1.1941896212662677
s(g2554
I0
tp3115
F0.6018229760194341
s(g2556
I1
tp3116
F0.0
s((I200
I30
I3
tp3117
I0
tp3118
F0.75648
s(g2602
I1
tp3119
F0.0
s((I120
I-90
I1
tp3120
I0
tp3121
F0.80965632
s(g2564
I0
tp3122
F1.2450893690435987
s((I-40
I-30
I-8
tp3123
I1
tp3124
F0.0
s(g2569
I1
tp3125
F0.0
s(g1840
I1
tp3126
F0.0
s(g2572
I0
tp3127
F1.2256640221632111
s((I280
I-90
I9
tp3128
I0
tp3129
F1.2152866957985764
s((I200
I-120
I7
tp3130
I0
tp3131
F0.9335819069722964
s(g1371
I1
tp3132
F0.0
s(g2575
I0
tp3133
F0.48
s((I0
I-120
I-2
tp3134
I1
tp3135
F0.0
s(g2581
I1
tp3136
F13.93212025826728
s((I320
I-90
I-7
tp3137
I0
tp3138
F0.48
s(g2583
I1
tp3139
F0.0
s((I400
I-30
I-6
tp3140
I1
tp3141
F1.0365097861468895
s(g2586
I1
tp3142
F0.0
s((I40
I180
I-2
tp3143
I1
tp3144
F0.0
s(g3019
I0
tp3145
F0.48
s((I360
I60
I0
tp3146
I0
tp3147
F1.216131153659842
s(g2598
I0
tp3148
F20.14950600615375
s((I-40
I30
I-9
tp3149
I0
tp3150
F-400.0
s((I280
I60
I7
tp3151
I0
tp3152
F1.2374186300005683
s(g2100
I1
tp3153
F0.0
s((I160
I-90
I-7
tp3154
I0
tp3155
F1.1816162853058145
s(g2902
I0
tp3156
F17.463623385379627
s((I320
I120
I-4
tp3157
I0
tp3158
F0.7104
s(g2607
I0
tp3159
F0.9771278442586345
s(g2611
I0
tp3160
F19.0848
s((I400
I-30
I-9
tp3161
I0
tp3162
F0.8930653391079445
s((I40
I-150
I9
tp3163
I0
tp3164
F0.9835798978080277
s((I120
I-90
I4
tp3165
I1
tp3166
F0.0
s((I320
I90
I2
tp3167
I1
tp3168
F0.0
s(g2614
I0
tp3169
F0.58549248
s((I200
I30
I5
tp3170
I0
tp3171
F0.776448
s((I360
I60
I-9
tp3172
I0
tp3173
F1.161081249155313
s((I200
I-120
I-8
tp3174
I1
tp3175
F0.0
s((I0
I150
I0
tp3176
I0
tp3177
F-399.92
s(g2479
I1
tp3178
F0.0
s((I360
I-90
I3
tp3179
I0
tp3180
F1.186965465571116
s(g2619
I1
tp3181
F0.0
s(g2671
I1
tp3182
F0.0
s((I-40
I-30
I8
tp3183
I1
tp3184
F0.0
s(g2623
I1
tp3185
F0.0
s(g2673
I1
tp3186
F0.0
s(g2625
I0
tp3187
F0.5049599098813812
s((I360
I-30
I3
tp3188
I0
tp3189
F1.1182966671623005
s(g2629
I0
tp3190
F0.794218274095104
s(g2566
I0
tp3191
F0.48
s(g2631
I1
tp3192
F0.0
s((I40
I30
I5
tp3193
I0
tp3194
F19.95277852428474
s(g2635
I1
tp3195
F0.0
s(g2684
I1
tp3196
F0.0
s(g1056
I1
tp3197
F0.0
s(g1062
I1
tp3198
F0.0
s(g391
I1
tp3199
F0.0
s(g2638
I0
tp3200
F1.055881247040794
s(g2640
I0
tp3201
F1.1811771813311862
s(g2642
I1
tp3202
F0.0
s(g2645
I1
tp3203
F0.0
s((I240
I30
I-6
tp3204
I1
tp3205
F0.52608
s((I80
I-150
I7
tp3206
I1
tp3207
F0.0
s((I360
I60
I-2
tp3208
I0
tp3209
F1.1972504633950058
s(g2649
I0
tp3210
F0.48
s((I360
I0
I-6
tp3211
I1
tp3212
F0.0
s(g905
I1
tp3213
F0.0
s((I280
I-60
I8
tp3214
I1
tp3215
F0.0
s(g2656
I0
tp3216
F0.9672886356352697
s(g2661
I0
tp3217
F0.77568
s(g2664
I0
tp3218
F0.48
s(g2742
I0
tp3219
F0.7414272000000001
s(g2713
I0
tp3220
F-399.92
s(g2668
I0
tp3221
F0.48
s(g2676
I0
tp3222
F0.58549248
s(g2722
I1
tp3223
F0.0
s(g2678
I1
tp3224
F0.0
s(g2680
I1
tp3225
F0.0
s(g2682
I0
tp3226
F0.48
s((I240
I-120
I8
tp3227
I1
tp3228
F0.0
s(g2687
I0
tp3229
F-399.8144046777805
s((I0
I-90
I1
tp3230
I0
tp3231
F-399.92
s(g2617
I1
tp3232
F0.0
s(g2690
I1
tp3233
F0.0
s((I120
I-90
I-1
tp3234
I0
tp3235
F1.1282655120066398
s(g1911
I1
tp3236
F0.0
s(g2692
I0
tp3237
F1.0099699791011854
s((I200
I-180
I-7
tp3238
I0
tp3239
F0.48
s((I0
I-90
I-7
tp3240
I0
tp3241
F-399.92
s(g3030
I0
tp3242
F0.9952572230860799
s(g2701
I1
tp3243
F0.0
s((I280
I0
I-8
tp3244
I1
tp3245
F0.9236844320888193
s(g1847
I0
tp3246
F0.48
s((I0
I-30
I7
tp3247
I0
tp3248
F7.2
s(g2703
I1
tp3249
F0.0
s((I-80
I-30
I4
tp3250
I1
tp3251
F0.0
s(g2705
I0
tp3252
F1.2408221313661898
s(g2707
I0
tp3253
F0.54528
s((I80
I-90
I-7
tp3254
I0
tp3255
F1.0915945295118334
s(g2710
I0
tp3256
F0.48
s(g2748
I1
tp3257
F0.0
s(g3013
I0
tp3258
F0.48
s((I160
I-150
I1
tp3259
I0
tp3260
F1.044262440665088
s(g2717
I1
tp3261
F0.0
s((I400
I-120
I-5
tp3262
I0
tp3263
F1.0859312181260812
s(g2719
I1
tp3264
F0.0
s(g443
I1
tp3265
F0.0
s(g2725
I1
tp3266
F0.0
s((I160
I-150
I-4
tp3267
I1
tp3268
F0.0
s(g2729
I1
tp3269
F0.0
s((I200
I-180
I-6
tp3270
I1
tp3271
F0.0
s((I240
I90
I9
tp3272
I0
tp3273
F0.6719999999999999
s(g2733
I1
tp3274
F1.1121868278419422
s((I80
I-90
I4
tp3275
I1
tp3276
F0.0
s(g2735
I0
tp3277
F19.392
s((I0
I-30
I4
tp3278
I1
tp3279
F0.0
s(g2737
I0
tp3280
F0.7417343999999999
s((I-80
I-60
I10
tp3281
I1
tp3282
F0.0
s((I80
I-90
I-2
tp3283
I1
tp3284
F0.0
s(g1916
I0
tp3285
F1.136367572330021
s((I280
I-90
I-6
tp3286
I0
tp3287
F0.77568
s(g1500
I1
tp3288
F0.0
s(g2744
I1
tp3289
F0.0
s((I80
I-60
I5
tp3290
I1
tp3291
F0.0
s(g2777
I1
tp3292
F0.0
s((I40
I-120
I-8
tp3293
I1
tp3294
F0.0
s((I0
I-90
I-4
tp3295
I1
tp3296
F0.0
s(g2750
I1
tp3297
F0.0
s(g2788
I0
tp3298
F0.48
s((I80
I-30
I1
tp3299
I0
tp3300
F11.54836362669533
s((I360
I-60
I-9
tp3301
I0
tp3302
F1.136111220530564
s(g2754
I1
tp3303
F0.0
s((I280
I0
I10
tp3304
I1
tp3305
F0.0
s((I-40
I-60
I9
tp3306
I0
tp3307
F-400.0
s(g2759
I1
tp3308
F0.0
s((I120
I-30
I10
tp3309
I1
tp3310
F0.0
s(g2762
I1
tp3311
F0.0
s(g2764
I0
tp3312
F3.637314713215303
s(g3208
I1
tp3313
F0.0
s((I400
I-60
I-2
tp3314
I1
tp3315
F0.0
s(g2767
I1
tp3316
F0.0
s((I160
I-90
I1
tp3317
I0
tp3318
F0.48
s((I200
I-150
I-9
tp3319
I0
tp3320
F1.1222628675595836
s(g2770
I0
tp3321
F0.48
s(g2773
I1
tp3322
F1.182871424584909
s((I240
I-120
I-6
tp3323
I1
tp3324
F0.0
s(g2549
I0
tp3325
F1.1807600714081974
s(g1535
I0
tp3326
F-400.0
s((I0
I-180
I-9
tp3327
I0
tp3328
F0.52608
s(g2779
I1
tp3329
F0.0
s((I280
I-210
I10
tp3330
I1
tp3331
F0.92679168
s(g2782
I1
tp3332
F0.0
s((I200
I60
I2
tp3333
I1
tp3334
F0.0
s(g2785
I1
tp3335
F17.628268528966643
s((I320
I0
I9
tp3336
I0
tp3337
F0.9750527999999999
s((I40
I-120
I5
tp3338
I0
tp3339
F0.7583232000000001
s(g2791
I0
tp3340
F1.059933784811261
s(g2979
I1
tp3341
F0.0
s((I280
I60
I0
tp3342
I1
tp3343
F0.0
s((I280
I-210
I-6
tp3344
I1
tp3345
F0.0
s(g1200
I1
tp3346
F0.0
s(g2794
I0
tp3347
F0.9585414144000001
s((I160
I-90
I6
tp3348
I1
tp3349
F0.0
s((I200
I120
I5
tp3350
I0
tp3351
F0.77568
s((I80
I90
I-4
tp3352
I0
tp3353
F0.48
s((I200
I0
I5
tp3354
I0
tp3355
F0.8825856000000001
s((I320
I0
I-4
tp3356
I1
tp3357
F0.0
s(g2832
I0
tp3358
F0.48
s(g3075
I0
tp3359
F15.88593467115669
s(g3081
I1
tp3360
F0.0
s((I200
I90
I6
tp3361
I1
tp3362
F0.0
s(g2810
I1
tp3363
F0.0
s((I0
I0
I-6
tp3364
I1
tp3365
F0.0
s((I240
I30
I-9
tp3366
I0
tp3367
F0.4992
s(g2816
I1
tp3368
F0.0
s(g2820
I0
tp3369
F0.0
s(g2822
I0
tp3370
F11.702016
s((I-40
I0
I-3
tp3371
I0
tp3372
F25.900647727103998
s(g2827
I1
tp3373
F0.0
s((I240
I60
I0
tp3374
I1
tp3375
F0.0
s((I320
I90
I-8
tp3376
I1
tp3377
F0.0
s(g3234
I1
tp3378
F0.0
s((I80
I-30
I6
tp3379
I0
tp3380
F0.77568
s(g1964
I0
tp3381
F7.180584960000002
s(g3089
I1
tp3382
F0.0
s((I320
I90
I-9
tp3383
I0
tp3384
F1.028978113432781
s((I320
I60
I-8
tp3385
I0
tp3386
F1.1778081896164434
s(g3290
I0
tp3387
F0.54528
s(g2834
I0
tp3388
F1.92758886671441
s((I320
I30
I-9
tp3389
I0
tp3390
F0.5819235055152661
s(g2837
I1
tp3391
F0.0
s((I160
I-60
I-6
tp3392
I1
tp3393
F0.0
s(g2840
I1
tp3394
F0.0
s((I120
I-150
I7
tp3395
I0
tp3396
F0.8550727680000001
s((I-40
I-30
I5
tp3397
I0
tp3398
F18.162187290406724
s(g1147
I1
tp3399
F0.0
s((I320
I-60
I0
tp3400
I1
tp3401
F0.0
s((I120
I-120
I7
tp3402
I0
tp3403
F0.532273152
s((I320
I-90
I8
tp3404
I1
tp3405
F0.0
s((I200
I-180
I1
tp3406
I0
tp3407
F0.48
s(g2849
I1
tp3408
F0.0
s((I320
I-30
I8
tp3409
I1
tp3410
F0.0
s(g2853
I0
tp3411
F10.621606358798667
s((I360
I-90
I6
tp3412
I1
tp3413
F0.0
s(g2855
I0
tp3414
F0.48
s(g2859
I0
tp3415
F1.185166343419099
s(g2861
I1
tp3416
F0.0
s((I120
I-150
I4
tp3417
I1
tp3418
F0.0
s(g2651
I1
tp3419
F0.0
s(g2889
I0
tp3420
F1.23526172012384
s(g2864
I1
tp3421
F0.0
s((I-40
I-30
I2
tp3422
I1
tp3423
F0.0
s((I200
I-180
I-2
tp3424
I1
tp3425
F0.0
s((I40
I-60
I8
tp3426
I1
tp3427
F18.0388730250542
s(g2869
I0
tp3428
F0.5250825218260412
s((I80
I-120
I9
tp3429
I0
tp3430
F1.0110452049127343
s(g684
I1
tp3431
F0.0
s((I40
I-30
I8
tp3432
I1
tp3433
F0.0
s(g586
I0
tp3434
F1.0336437481497303
s((I160
I-120
I8
tp3435
I0
tp3436
F1.2114421946203673
s((I120
I-150
I-8
tp3437
I1
tp3438
F1.04672312558302
s(g1629
I1
tp3439
F0.0
s(g2904
I0
tp3440
F0.48
s(g2874
I0
tp3441
F1.1486079245659628
s(g2910
I1
tp3442
F0.48
s(g2876
I1
tp3443
F0.0
s(g2879
I0
tp3444
F0.48
s(g2881
I0
tp3445
F0.7875072000000001
s(g2883
I0
tp3446
F0.48
s((I120
I-30
I-3
tp3447
I0
tp3448
F0.5639196672
s(g2886
I0
tp3449
F-479.95160911836695
s((I400
I-30
I-4
tp3450
I1
tp3451
F0.0
s(g1312
I1
tp3452
F0.0
s((I160
I30
I8
tp3453
I1
tp3454
F0.0
s((I80
I-30
I-9
tp3455
I1
tp3456
F0.0
s((I240
I0
I-3
tp3457
I0
tp3458
F0.96544063488
s(g2894
I0
tp3459
F0.48
s(g2897
I1
tp3460
F0.0
s(g2382
I1
tp3461
F0.0
s((I160
I-90
I-5
tp3462
I0
tp3463
F1.2220100671099186
s(g255
I0
tp3464
F0.509669376
s(g2906
I1
tp3465
F0.0
s((I280
I-30
I7
tp3466
I0
tp3467
F1.030116661045965
s(g2908
I1
tp3468
F0.0
s(g965
I0
tp3469
F1.21519756000842
s((I80
I90
I-5
tp3470
I1
tp3471
F0.0
s(g3417
I0
tp3472
F1.0163236651401217
s(g2915
I0
tp3473
F0.8780427264
s((I120
I0
I-8
tp3474
I1
tp3475
F0.0
s(g2919
I0
tp3476
F0.77568
s(g2921
I0
tp3477
F-479.98400000000004
s(g2924
I0
tp3478
F0.8135307264
s(g2961
I0
tp3479
F0.48
s(g2967
I1
tp3480
F0.0
s(g2930
I1
tp3481
F0.0
s((I280
I120
I1
tp3482
I0
tp3483
F0.886272
s(g2934
I0
tp3484
F1.191177857151271
s(g2937
I0
tp3485
F1.1047926466003912
s((I80
I-120
I-3
tp3486
I0
tp3487
F0.61026336768
s(g1480
I0
tp3488
F0.48
s(g2941
I0
tp3489
F12.0
s((I160
I-150
I9
tp3490
I0
tp3491
F1.05911930781696
s(g1159
I1
tp3492
F12.0
s((I40
I-150
I-7
tp3493
I0
tp3494
F1.1209414085368086
s(g1176
I0
tp3495
F1.228996747777375
s(g2984
I0
tp3496
F0.8126147788800001
s(g2947
I1
tp3497
F0.0
s(g2987
I1
tp3498
F0.0
s(g2950
I0
tp3499
F0.77568
s(g2426
I1
tp3500
F0.0
s((I280
I-90
I2
tp3501
I1
tp3502
F0.0
s(g2952
I1
tp3503
F0.0
s((I0
I0
I-9
tp3504
I0
tp3505
F8.945463868783765
s(g2954
I0
tp3506
F7.2
s(g1254
I0
tp3507
F7.036230261248363
s(g4
I1
tp3508
F0.0
s(g6
I0
tp3509
F0.96569334104064
s(g2963
I0
tp3510
F7.2
s(g3354
I1
tp3511
F0.0
s(g12
I0
tp3512
F0.54528
s(g14
I0
tp3513
F1.1633441223424057
s((I160
I60
I10
tp3514
I0
tp3515
F1.2246677315045658
s((I240
I-180
I-6
tp3516
I0
tp3517
F0.8118871428433456
s(g1035
I1
tp3518
F0.0
s(g2577
I0
tp3519
F0.7104
s(g2970
I0
tp3520
F13.840741515762073
s(g22
I0
tp3521
F1.1943602271379135
s(g790
I1
tp3522
F0.0
s(g28
I0
tp3523
F-399.92
s(g3003
I1
tp3524
F0.0
s((I200
I-90
I-1
tp3525
I0
tp3526
F1.001940762624
s(g600
I1
tp3527
F0.0
s(g2976
I1
tp3528
F0.0
s(g3010
I1
tp3529
F0.0
s((I80
I30
I5
tp3530
I1
tp3531
F0.0
s(g36
I0
tp3532
F-399.92
s(g2982
I1
tp3533
F0.0
s(g48
I1
tp3534
F0.48
s(g1446
I1
tp3535
F0.0
s(g54
I1
tp3536
F1.0471461951940764
s(g58
I0
tp3537
F0.48
s(g359
I1
tp3538
F1.039108824210604
s(g1951
I0
tp3539
F1.1994700173576207
s(g72
I0
tp3540
F0.6719999999999999
s(g3206
I0
tp3541
F0.8982324077544497
s(g3037
I0
tp3542
F1.052587440340992
s(g80
I0
tp3543
F3.6268325327122906
s(g84
I0
tp3544
F1.160029165207688
s(g44
I0
tp3545
F-400.0
s(g88
I1
tp3546
F0.0
s(g249
I1
tp3547
F0.0
s(g92
I0
tp3548
F1.0997954071851173
s(g3021
I0
tp3549
F1.0444251821506558
s(g56
I1
tp3550
F0.0
s(g1301
I1
tp3551
F0.0
s(g94
I1
tp3552
F0.0
s(g96
I0
tp3553
F13.459511006540883
s(g3025
I0
tp3554
F1.1723570167618937
s(g100
I1
tp3555
F0.48
s(g3032
I1
tp3556
F0.0
s(g104
I1
tp3557
F0.0
s(g107
I0
tp3558
F1.0872892369586356
s(g3065
I1
tp3559
F-398.8
s(g109
I0
tp3560
F0.790204416
s(g111
I1
tp3561
F0.0
s(g117
I1
tp3562
F0.0
s(g121
I0
tp3563
F0.9769478848512001
s(g125
I1
tp3564
F0.0
s(g127
I0
tp3565
F1.171431224217263
s(g129
I1
tp3566
F0.0
s(g2098
I1
tp3567
F0.0
s((I40
I60
I1
tp3568
I0
tp3569
F3.46368
s(g137
I1
tp3570
F0.0
s(g3514
I1
tp3571
F0.0
s((I240
I-90
I4
tp3572
I1
tp3573
F0.0
s(g147
I1
tp3574
F0.0
s(g3049
I0
tp3575
F0.48
s(g151
I0
tp3576
F0.9631677087743999
s(g3087
I0
tp3577
F10.561749037813112
s(g3054
I0
tp3578
F27.49815785409479
s(g159
I0
tp3579
F0.48
s(g3058
I0
tp3580
F0.6719999999999999
s(g102
I0
tp3581
F0.48
s(g167
I1
tp3582
F0.0
s(g3062
I0
tp3583
F0.9132639760644181
s(g171
I0
tp3584
F1.180311711928275
s(g3104
I1
tp3585
F0.0
s(g175
I1
tp3586
F0.0
s(g177
I0
tp3587
F0.5817364565159489
s(g3073
I0
tp3588
F12.0192
s(g193
I0
tp3589
F0.48
s(g195
I1
tp3590
F0.0
s(g1897
I0
tp3591
F0.48
s(g3083
I0
tp3592
F0.48
s(g822
I0
tp3593
F1.1028670430850303
s(g199
I0
tp3594
F1.068753414813701
s(g3085
I1
tp3595
F0.0
s(g203
I1
tp3596
F0.0
s(g205
I1
tp3597
F0.0
s(g797
I0
tp3598
F0.48
s(g3092
I0
tp3599
F0.89619456
s(g3095
I1
tp3600
F0.0
s(g3098
I1
tp3601
F0.0
s(g3100
I1
tp3602
F0.0
s(g3102
I0
tp3603
F1.1050963076152704
s(g2154
I0
tp3604
F1.2230385460072142
s(g1541
I0
tp3605
F0.54528
s(g221
I1
tp3606
F0.0
s(g1190
I1
tp3607
F0.0
s(g183
I0
tp3608
F0.48
s(g3107
I0
tp3609
F1.039068217344
s(g227
I1
tp3610
F0.0
s(g3110
I0
tp3611
F0.77568
s(g229
I1
tp3612
F1.1835459351253044
s(g3113
I1
tp3613
F0.0
s(g3146
I1
tp3614
F0.0
s(g3117
I1
tp3615
F0.0
s(g241
I1
tp3616
F0.0
s(g3120
I1
tp3617
F0.0
s(g245
I1
tp3618
F1.1596348336303768
s(g3123
I0
tp3619
F7.2
s(g3157
I1
tp3620
F0.0
s(g251
I0
tp3621
F1.179715020870569
s(g1180
I0
tp3622
F1.192442259344359
s(g209
I0
tp3623
F0.601032624832512
s(g213
I1
tp3624
F0.0
s(g257
I1
tp3625
F0.0
s(g3128
I1
tp3626
F0.48
s(g3130
I1
tp3627
F0.0
s(g261
I0
tp3628
F7.2
s(g3134
I0
tp3629
F0.48
s(g3176
I1
tp3630
F0.0
s(g3137
I1
tp3631
F0.0
s(g274
I0
tp3632
F7.2
s(g3140
I0
tp3633
F1.0907229286390698
s(g3143
I0
tp3634
F0.48
s(g280
I0
tp3635
F12.271202913659355
s(g235
I0
tp3636
F-479.98400000000004
s(g3149
I1
tp3637
F-479.76
s(g3151
I1
tp3638
F0.0
s(g1604
I1
tp3639
F0.0
s(g291
I0
tp3640
F1.0128078864384
s(g3154
I1
tp3641
F0.0
s(g247
I0
tp3642
F0.48
s(g297
I1
tp3643
F0.0
s(g3161
I1
tp3644
F0.48
s(g3163
I1
tp3645
F0.0
s(g3165
I0
tp3646
F0.77568
s(g3167
I0
tp3647
F0.48
s(g3170
I1
tp3648
F0.0
s(g3516
I1
tp3649
F0.0
s(g944
I1
tp3650
F0.0
s(g3172
I1
tp3651
F0.0
s(g3174
I0
tp3652
F1.0999531071035265
s(g311
I0
tp3653
F1.2114903661806142
s(g3286
I1
tp3654
F0.0
s(g3179
I1
tp3655
F0.0
s(g3183
I0
tp3656
F6.0992
s(g3342
I0
tp3657
F1.0395399880972613
s(g3188
I1
tp3658
F0.0
s(g3193
I1
tp3659
F0.0
s(g319
I1
tp3660
F0.0
s(g321
I0
tp3661
F1.0569744187391998
s(g2756
I0
tp3662
F0.75648
s((I120
I-90
I-2
tp3663
I1
tp3664
F0.0
s(g295
I1
tp3665
F0.0
s(g333
I1
tp3666
F0.0
s(g3204
I0
tp3667
F0.7801344
s(g337
I1
tp3668
F0.0
s(g810
I0
tp3669
F0.776890368
s(g3211
I0
tp3670
F1.095316533734915
s(g3344
I0
tp3671
F0.7296
s(g3214
I0
tp3672
F1.1650423049274807
s(g345
I0
tp3673
F0.9580720128
s(g1439
I1
tp3674
F0.0
s(g353
I1
tp3675
F0.0
s(g2857
I0
tp3676
F0.48
s(g363
I1
tp3677
F-400.0
s(g1127
I1
tp3678
F0.0
s(g3227
I0
tp3679
F0.9257896517443746
s(g3230
I1
tp3680
F-399.92
s(g2028
I0
tp3681
F0.48
s(g371
I1
tp3682
F0.0
s(g373
I0
tp3683
F0.77568
s(g3352
I1
tp3684
F0.0
s(g379
I1
tp3685
F0.0
s(g3238
I1
tp3686
F0.0
s(g3240
I1
tp3687
F0.0
s((I320
I-60
I-3
tp3688
I1
tp3689
F0.0
s(g1402
I1
tp3690
F0.0
s(g3244
I0
tp3691
F0.0
s(g2806
I1
tp3692
F0.0
s((I80
I60
I-3
tp3693
I0
tp3694
F0.77568
s(g3247
I1
tp3695
F0.0
s(g3250
I0
tp3696
F0.48
s(g349
I0
tp3697
F0.9704957038880097
s(g3254
I1
tp3698
F0.0
s(g3259
I1
tp3699
F0.0
s(g3262
I1
tp3700
F0.0
s(g393
I1
tp3701
F0.0
s(g397
I1
tp3702
F0.0
s(g3267
I0
tp3703
F0.777294205943808
s(g399
I0
tp3704
F0.48
s(g3270
I0
tp3705
F0.48
s(g707
I0
tp3706
F1.07387597488128
s(g403
I0
tp3707
F7.2
s(g3272
I1
tp3708
F0.0
s(g367
I1
tp3709
F0.0
s(g3275
I0
tp3710
F0.96370778112
s(g407
I0
tp3711
F1.2326763229226818
s(g3278
I0
tp3712
F18.104179421232473
s(g411
I0
tp3713
F1.1816654939234934
s(g3281
I0
tp3714
F-400.0
s(g415
I1
tp3715
F-400.0
s(g3283
I0
tp3716
F0.48
s(g417
I0
tp3717
F1.0250564709290424
s(g421
I0
tp3718
F1.3060867214433745
s(g381
I1
tp3719
F0.0
s(g3293
I0
tp3720
F0.9638687539199999
s(g3295
I0
tp3721
F-400.0
s(g441
I1
tp3722
F0.0
s(g3299
I1
tp3723
F0.0
s(g445
I0
tp3724
F0.7104
s(g2088
I0
tp3725
F0.6719999999999999
s(g447
I1
tp3726
F0.0
s(g451
I1
tp3727
F0.0
s(g453
I0
tp3728
F9.94503956927663
s(g3301
I1
tp3729
F1.144798870526761
s(g395
I1
tp3730
F0.0
s(g3304
I0
tp3731
F1.0924717545337452
s(g3306
I1
tp3732
F-398.56
s(g461
I1
tp3733
F1.1573653578604746
s(g3309
I0
tp3734
F0.9723132876343749
s(g463
I0
tp3735
F0.77568
s(g3314
I0
tp3736
F1.04744032862208
s(g467
I1
tp3737
F0.0
s(g3317
I1
tp3738
F1.0253791569442041
s(g3319
I1
tp3739
F0.0
s(g638
I0
tp3740
F0.9659690188799999
s(g2398
I0
tp3741
F-400.0
s(g473
I1
tp3742
F0.0
s(g3323
I0
tp3743
F1.1004767672991744
s((I40
I-30
I-5
tp3744
I0
tp3745
F12.0448512
s(g479
I1
tp3746
F0.0
s(g3327
I1
tp3747
F0.0
s(g1513
I0
tp3748
F0.54528
s(g3330
I0
tp3749
F0.78763210309632
s(g3333
I0
tp3750
F0.54528
s(g3336
I1
tp3751
F0.0
s(g487
I1
tp3752
F0.0
s(g3338
I1
tp3753
F0.0
s(g489
I1
tp3754
F0.0
s(g2462
I0
tp3755
F1.2317878230770318
s(g495
I1
tp3756
F0.0
s(g3348
I0
tp3757
F1.1643468930137886
s(g501
I0
tp3758
F0.48
s(g3350
I1
tp3759
F0.0
s(g3379
I1
tp3760
F0.0
s(g511
I1
tp3761
F0.0
s(g515
I1
tp3762
F0.0
s(g3385
I1
tp3763
F0.0
s(g3356
I0
tp3764
F0.48
s(g525
I1
tp3765
F0.0
s(g3568
I1
tp3766
F0.0
s(g3572
I0
tp3767
F0.77568
s(g531
I0
tp3768
F0.9305088
s(g3361
I0
tp3769
F0.54528
s(g3744
I1
tp3770
F0.0
s(g535
I1
tp3771
F0.0
s(g537
I0
tp3772
F1.2440433904750934
s(g1457
I1
tp3773
F0.0
s(g215
I0
tp3774
F0.6719999999999999
s(g543
I0
tp3775
F1.0169352191999999
s(g3364
I0
tp3776
F23.827238651559938
s(g3366
I1
tp3777
F0.0
s(g3688
I0
tp3778
F1.0715784851855767
s(g3371
I1
tp3779
F0.0
s(g547
I1
tp3780
F0.0
s(g3374
I0
tp3781
F0.9013125120000001
s(g549
I1
tp3782
F0.0
s(g3376
I0
tp3783
F0.605005821986734
s(g3663
I0
tp3784
F1.1548594132184034
s(g885
I1
tp3785
F0.0
s(g553
I1
tp3786
F0.0
s(g3383
I1
tp3787
F0.0
s(g726
I0
tp3788
F1.119654485704225
s(g3693
I1
tp3789
F0.0
s(g3389
I1
tp3790
F0.0
s(g3392
I0
tp3791
F1.0818163722358538
s(g3395
I1
tp3792
F0.84219322368
s(g572
I0
tp3793
F11.64672
s(g3397
I1
tp3794
F0.0
s(g3435
I1
tp3795
F0.0
s(g1876
I0
tp3796
F1.170666980608988
s(g3400
I0
tp3797
F1.1711613426918526
s(g3402
I1
tp3798
F0.0
s(g3404
I0
tp3799
F1.2007867941737929
s(g582
I0
tp3800
F4.808627206855066
s(g3406
I1
tp3801
F0.0
s(g3015
I1
tp3802
F0.0
s(g590
I0
tp3803
F1.6143004507209266
s(g1850
I1
tp3804
F0.0
s(g3409
I0
tp3805
F1.2192713295437976
s(g3412
I0
tp3806
F1.0143071956079615
s(g596
I1
tp3807
F0.0
s(g517
I1
tp3808
F0.0
s((I0
I-60
I6
tp3809
I0
tp3810
F-399.92
s((I120
I-180
I9
tp3811
I1
tp3812
F0.52608
s(g602
I0
tp3813
F1.1542620028403083
s(g1558
I0
tp3814
F0.8471666688000001
s(g3422
I0
tp3815
F10.1384196390912
s(g606
I1
tp3816
F0.0
s(g3424
I0
tp3817
F0.48
s(g608
I1
tp3818
F0.0
s(g3455
I0
tp3819
F10.12608
s(g3426
I0
tp3820
F0.0
s(g2284
I1
tp3821
F0.48
s(g566
I1
tp3822
F0.0
s(g3429
I1
tp3823
F0.0
s(g614
I0
tp3824
F1.0618538339336083
s(g618
I1
tp3825
F0.0
s(g622
I1
tp3826
F0.0
s(g3432
I0
tp3827
F13.623651210302539
s(g377
I0
tp3828
F0.6288763167125936
s(g32
I1
tp3829
F0.0
s(g624
I1
tp3830
F0.0
s(g628
I1
tp3831
F0.0
s(g3437
I0
tp3832
F1.151229355823988
s(g632
I0
tp3833
F1.1922513104985242
s(g3077
I0
tp3834
F1.0991780664882624
s(g3470
I0
tp3835
F0.48
s(g3809
I1
tp3836
F14.748998565972325
s(g644
I1
tp3837
F0.0
s(g3447
I1
tp3838
F1.1576355733226005
s(g646
I1
tp3839
F0.0
s(g2695
I1
tp3840
F0.0
s(g923
I0
tp3841
F0.48
s(g3811
I0
tp3842
F0.5500416
s(g654
I0
tp3843
F0.48
s(g3450
I0
tp3844
F1.1023725723648
s(g660
I1
tp3845
F0.0
s(g3453
I0
tp3846
F0.719616
s(g668
I0
tp3847
F11.28531037898844
s(g3457
I1
tp3848
F0.0
s(g670
I0
tp3849
F1.1556538482146332
s(g674
I1
tp3850
F0.0
s(g3462
I1
tp3851
F0.0
s(g678
I0
tp3852
F0.77568
s(g680
I1
tp3853
F0.77568
s(g900
I0
tp3854
F1.762039693968283
s(g682
I1
tp3855
F0.0
s(g3466
I1
tp3856
F0.0
s(g636
I1
tp3857
F0.0
s(g2254
I1
tp3858
F0.0
s(g690
I1
tp3859
F1.0767051939201981
s(g3474
I0
tp3860
F1.331285032359899
s(g650
I0
tp3861
F1.05994982445515
s(g692
I0
tp3862
F1.0380708062015642
s(g696
I1
tp3863
F0.0
s(g698
I1
tp3864
F0.0
s(g3482
I1
tp3865
F0.0
s(g3525
I1
tp3866
F0.0
s(g709
I0
tp3867
F0.77568
s(g3486
I1
tp3868
F0.0
s(g2697
I0
tp3869
F0.48
s(g715
I0
tp3870
F0.0
s(g3490
I1
tp3871
F0.0
s(g3530
I0
tp3872
F5.509777047551999
s(g718
I0
tp3873
F0.77568
s(g3493
I1
tp3874
F0.0
s(g2871
I1
tp3875
F0.0
s(g3501
I0
tp3876
F0.48
s(g720
I0
tp3877
F1.0145427564651432
s(g722
I0
tp3878
F1.110563772031155
s(g3504
I1
tp3879
F0.0
s.