ccollections
defaultdict
p0
(c__builtin__
float
p1
tp2
Rp3
((I80
I30
I8
tp4
I1
tp5
F0.0
s((I160
I-150
I6
tp6
I0
tp7
F0.9673184835668285
s((I160
I-120
I-8
tp8
I1
tp9
F0.0
s((I280
I0
I-10
tp10
I0
tp11
F19.051849928712002
s((I240
I-90
I0
tp12
I1
tp13
F0.0
s((I40
I-210
I-4
tp14
I0
tp15
F1.000194048
s((I320
I-120
I10
tp16
I0
tp17
F1.1543607753358984
s((I320
I-30
I4
tp18
I0
tp19
F0.48
s((I120
I-210
I10
tp20
I0
tp21
F0.5050210451229121
s((I280
I-60
I6
tp22
I1
tp23
F0.0
s((I160
I90
I-8
tp24
I0
tp25
F0.48
s((I280
I-150
I-6
tp26
I1
tp27
F0.0
s((I280
I210
I-2
tp28
I0
tp29
F-0.04471259744698308
s((I320
I90
I-4
tp30
I1
tp31
F0.0
s((I280
I210
I0
tp32
I0
tp33
F1.134985347072
s((I40
I-90
I10
tp34
I1
tp35
F0.0
s((I160
I-60
I-2
tp36
I1
tp37
F0.0
s((I120
I-60
I0
tp38
I1
tp39
F0.0
s((I120
I-180
I0
tp40
I1
tp41
F0.0
s((I200
I-150
I-4
tp42
I0
tp43
F1.220308762784227
s((I40
I-180
I-8
tp44
I1
tp45
F0.48
s((I40
I-210
I2
tp46
I0
tp47
F1.000194048
s((I240
I180
I-8
tp48
I0
tp49
F0.48
s((I280
I-90
I10
tp50
I1
tp51
F0.0
s((I320
I-150
I-10
tp52
I1
tp53
F0.0
s((I280
I-120
I10
tp54
I0
tp55
F1.2176933006758368
s((I360
I-30
I2
tp56
I1
tp57
F0.0
s((I360
I-90
I-2
tp58
I0
tp59
F0.0
s((I280
I-150
I-10
tp60
I1
tp61
F0.0
s((I320
I150
I-10
tp62
I1
tp63
F1.1266614894004474
s((I280
I30
I0
tp64
I0
tp65
F1.615342137920707
s((I320
I-60
I4
tp66
I0
tp67
F0.9167031025918737
s((I80
I-60
I4
tp68
I1
tp69
F0.0
s((I320
I60
I0
tp70
I0
tp71
F5.204438958408258
s((I320
I-30
I0
tp72
I1
tp73
F0.0
s((I360
I-90
I-6
tp74
I1
tp75
F0.0
s((I360
I-60
I-6
tp76
I1
tp77
F0.0
s((I320
I-60
I-4
tp78
I1
tp79
F0.0
s((I120
I90
I-6
tp80
I0
tp81
F0.6719999999999999
s((I80
I-270
I10
tp82
I1
tp83
F0.895488
s((I240
I0
I10
tp84
I1
tp85
F0.0
s((I200
I-90
I10
tp86
I1
tp87
F0.0
s((I0
I60
I6
tp88
I0
tp89
F-479.98400000000004
s((I320
I120
I-6
tp90
I0
tp91
F0.711518208
s((I120
I0
I6
tp92
I0
tp93
F3.779209945247908
s((I280
I-150
I-8
tp94
I0
tp95
F1.2158762615366916
s((I120
I90
I-2
tp96
I1
tp97
F0.0
s((I120
I-90
I-8
tp98
I0
tp99
F1.2172972816534737
s((I360
I30
I-6
tp100
I1
tp101
F1.1268732078486106
s((I320
I120
I0
tp102
I1
tp103
F0.0
s((I160
I-90
I8
tp104
I1
tp105
F0.0
s((I280
I-120
I-6
tp106
I1
tp107
F0.0
s((I40
I-180
I-6
tp108
I0
tp109
F0.90633726984192
s((I160
I-90
I-2
tp110
I0
tp111
F1.191066680479852
s((I320
I-60
I6
tp112
I0
tp113
F1.208792110461199
s((I400
I0
I-8
tp114
I0
tp115
F1.3297296703054309
s((I320
I-60
I-6
tp116
I1
tp117
F0.0
s((I160
I-180
I4
tp118
I0
tp119
F1.1753031648620405
s((I320
I0
I0
tp120
I1
tp121
F0.0
s((I360
I-60
I8
tp122
I0
tp123
F1.236454729430309
s((I200
I-90
I-4
tp124
I1
tp125
F0.0
s((I360
I90
I-4
tp126
I0
tp127
F0.4992
s((I200
I60
I6
tp128
I0
tp129
F0.48
s((I80
I60
I6
tp130
I0
tp131
F5.468375039999999
s((I280
I30
I-6
tp132
I1
tp133
F0.0
s((I40
I-120
I8
tp134
I1
tp135
F0.0
s((I80
I-180
I6
tp136
I0
tp137
F1.0909906541125967
s((I160
I60
I-2
tp138
I1
tp139
F0.0
s((I80
I-120
I-6
tp140
I1
tp141
F0.0
s((I240
I60
I-6
tp142
I1
tp143
F0.0
s((I240
I-150
I10
tp144
I1
tp145
F0.0
s((I240
I-150
I8
tp146
I1
tp147
F1.0105734588908344
s((I200
I-180
I-8
tp148
I0
tp149
F1.198943929992448
s((I320
I30
I-8
tp150
I0
tp151
F1.2182240174260026
s((I200
I-150
I6
tp152
I1
tp153
F0.0
s((I320
I0
I6
tp154
I1
tp155
F0.0
s((I40
I-120
I4
tp156
I1
tp157
F0.0
s((I120
I-180
I-4
tp158
I1
tp159
F0.0
s((I160
I60
I-4
tp160
I0
tp161
F0.6719999999999999
s((I40
I-90
I4
tp162
I1
tp163
F0.0
s((I40
I-60
I-8
tp164
I1
tp165
F0.0
s((I40
I-150
I-2
tp166
I0
tp167
F0.563712
s((I240
I-180
I-10
tp168
I1
tp169
F0.0
s((I-40
I0
I4
tp170
I0
tp171
F0.8479999999999999
s((I40
I90
I0
tp172
I1
tp173
F0.0
s((I280
I-60
I-4
tp174
I0
tp175
F0.6719999999999999
s((I240
I30
I-10
tp176
I1
tp177
F0.0
s((I320
I-150
I10
tp178
I0
tp179
F1.207995555447502
s((I200
I0
I-8
tp180
I1
tp181
F1.6817075500351488
s((I360
I-30
I-2
tp182
I1
tp183
F0.0
s((I320
I90
I4
tp184
I1
tp185
F0.0
s((I160
I-120
I2
tp186
I0
tp187
F1.2012678534041832
s((I360
I120
I-8
tp188
I1
tp189
F0.0
s((I40
I90
I4
tp190
I0
tp191
F0.48
s(g84
I0
tp192
F2.3876651552300823
s((I40
I-240
I10
tp193
I0
tp194
F-399.86560000000003
s((I160
I-90
I-4
tp195
I0
tp196
F1.1405537514061037
s((I80
I-30
I-10
tp197
I0
tp198
F0.6719999999999999
s((I200
I-150
I-8
tp199
I1
tp200
F1.0551321495506605
s((I160
I-180
I8
tp201
I0
tp202
F0.9580702650203111
s((I40
I-120
I6
tp203
I0
tp204
F1.0373828445284308
s((I360
I0
I-2
tp205
I1
tp206
F0.0
s((I120
I0
I2
tp207
I1
tp208
F0.0
s((I200
I-120
I-10
tp209
I0
tp210
F1.0864599162684236
s((I160
I-60
I10
tp211
I1
tp212
F0.48
s((I280
I-60
I-2
tp213
I1
tp214
F0.0
s((I120
I60
I2
tp215
I1
tp216
F0.0
s((I40
I0
I0
tp217
I0
tp218
F34.56
s((I80
I-90
I-6
tp219
I0
tp220
F1.1887184094185488
s((I40
I-60
I-6
tp221
I0
tp222
F0.48
s((I400
I30
I-2
tp223
I0
tp224
F0.911704869175296
s((I400
I0
I-10
tp225
I0
tp226
F25.33147255413865
s((I400
I-120
I-8
tp227
I0
tp228
F0.48
s((I240
I-30
I8
tp229
I0
tp230
F0.6990975812599505
s((I320
I-30
I10
tp231
I0
tp232
F1.2285774706999326
s((I280
I60
I10
tp233
I1
tp234
F0.48
s((I200
I-90
I-8
tp235
I1
tp236
F0.0
s((I400
I30
I-6
tp237
I1
tp238
F0.0
s((I40
I-150
I10
tp239
I1
tp240
F1.1190904282557255
s((I280
I0
I6
tp241
I0
tp242
F25.25063053570109
s((I280
I120
I-8
tp243
I0
tp244
F0.7104
s((I120
I-90
I2
tp245
I0
tp246
F0.990988763136
s((I240
I210
I0
tp247
I0
tp248
F0.0
s((I200
I180
I-8
tp249
I0
tp250
F0.48
s((I80
I-240
I-8
tp251
I0
tp252
F1.000194048
s((I240
I150
I10
tp253
I1
tp254
F0.0
s((I0
I-60
I-8
tp255
I0
tp256
F-400.0
s((I200
I-120
I0
tp257
I0
tp258
F0.6912
s((I40
I90
I-4
tp259
I1
tp260
F0.0
s((I240
I-120
I-10
tp261
I0
tp262
F0.6719999999999999
s((I240
I-180
I10
tp263
I1
tp264
F0.9342931956763774
s((I40
I-30
I-6
tp265
I1
tp266
F0.0
s((I120
I-90
I10
tp267
I1
tp268
F0.48
s((I120
I-180
I8
tp269
I0
tp270
F1.134490381792051
s((I320
I-90
I-10
tp271
I0
tp272
F0.9750527999999999
s((I280
I-30
I-2
tp273
I0
tp274
F0.6912
s((I360
I90
I-10
tp275
I0
tp276
F0.6357877271859843
s((I40
I-210
I8
tp277
I0
tp278
F0.4992
s((I120
I-150
I-2
tp279
I1
tp280
F0.0
s((I80
I-120
I10
tp281
I0
tp282
F1.141254970031299
s((I360
I-90
I8
tp283
I0
tp284
F0.9621899343298559
s((I400
I-60
I-6
tp285
I1
tp286
F11.16881862742644
s((I320
I120
I2
tp287
I0
tp288
F0.6938112
s((I360
I30
I6
tp289
I1
tp290
F0.0
s((I240
I-150
I2
tp291
I1
tp292
F0.0
s((I360
I60
I-4
tp293
I0
tp294
F1.182409925070459
s((I160
I30
I2
tp295
I1
tp296
F0.0
s((I160
I-90
I-8
tp297
I0
tp298
F0.4992
s((I200
I-90
I0
tp299
I1
tp300
F0.0
s((I240
I90
I10
tp301
I1
tp302
F0.0
s((I40
I-150
I8
tp303
I0
tp304
F-399.8675653541888
s((I360
I90
I-8
tp305
I0
tp306
F0.5248063387771813
s((I360
I60
I-10
tp307
I0
tp308
F0.6999552
s((I280
I180
I0
tp309
I0
tp310
F0.6912
s((I280
I120
I-10
tp311
I1
tp312
F0.0
s((I80
I0
I2
tp313
I0
tp314
F0.6719999999999999
s((I240
I-120
I4
tp315
I0
tp316
F1.1686606354834663
s((I240
I-60
I10
tp317
I0
tp318
F0.6446707929024251
s((I200
I120
I10
tp319
I0
tp320
F0.6719999999999999
s((I80
I-60
I-4
tp321
I0
tp322
F1.2254619012955055
s((I240
I-150
I6
tp323
I0
tp324
F0.5241808876109132
s((I280
I-150
I10
tp325
I1
tp326
F1.180494215020919
s((I240
I-120
I0
tp327
I1
tp328
F0.0
s((I40
I-210
I-2
tp329
I0
tp330
F1.000194048
s((I280
I120
I-6
tp331
I0
tp332
F0.48
s((I400
I-90
I-6
tp333
I0
tp334
F1.3077971631065757
s((I160
I-120
I-4
tp335
I0
tp336
F1.100471446536192
s((I80
I-210
I8
tp337
I1
tp338
F0.0
s((I120
I30
I4
tp339
I1
tp340
F0.0
s((I280
F-240.0
I10
tp341
I0
tp342
F-400.0
s((I80
I-90
I0
tp343
I0
tp344
F0.9535267974131221
s((I280
I210
I2
tp345
I0
tp346
F0.6966206005248
s((I40
I0
I-4
tp347
I1
tp348
F0.0
s((I80
I60
I2
tp349
I0
tp350
F0.6912
s((I200
I-180
I10
tp351
I0
tp352
F-479.98400000000004
s((I360
I-30
I-10
tp353
I0
tp354
F21.032872102733812
s((I120
I-210
I-10
tp355
I0
tp356
F0.0
s((I80
I-30
I6
tp357
I0
tp358
F0.4992
s((I0
I-90
I-8
tp359
I0
tp360
F-400.0
s((I80
I60
I-8
tp361
I0
tp362
F0.4992
s((I40
I-60
I4
tp363
I1
tp364
F0.0
s((I320
I150
I-2
tp365
I0
tp366
F0.6912
s((I80
I-240
I-10
tp367
I0
tp368
F0.9908428800000001
s((I320
I150
I-6
tp369
I1
tp370
F0.0
s((I200
I60
I4
tp371
I0
tp372
F0.4992
s((I360
I30
I-2
tp373
I1
tp374
F0.0
s((I200
I-60
I-2
tp375
I0
tp376
F1.1382288167731203
s(g24
I1
tp377
F0.0
s((I400
I-60
I-10
tp378
I1
tp379
F0.0
s(g8
I0
tp380
F0.9616911543158766
s((I320
I120
I-2
tp381
I0
tp382
F0.915406848
s((I40
I-180
I0
tp383
I1
tp384
F0.0
s((I160
I-60
I2
tp385
I1
tp386
F0.0
s((I360
I-60
I-8
tp387
I1
tp388
F0.0
s((I320
I-120
I-6
tp389
I1
tp390
F0.0
s((I120
I60
I-4
tp391
I1
tp392
F0.0
s(g12
I0
tp393
F0.9991955251200001
s((I280
I60
I2
tp394
I1
tp395
F0.0
s((I160
I30
I-6
tp396
I1
tp397
F0.0
s(g22
I0
tp398
F0.8309759999999999
s((I240
I30
I0
tp399
I1
tp400
F0.48
s(g26
I0
tp401
F1.0756347508116617
s((I240
I-90
I-4
tp402
I1
tp403
F0.0
s(g30
I0
tp404
F1.1296595073596643
s((I280
I-60
I10
tp405
I1
tp406
F0.0
s(g34
I0
tp407
F0.9422461902946775
s(g36
I0
tp408
F1.199216255402288
s((I280
I-120
I-8
tp409
I1
tp410
F0.0
s((I160
I-120
I8
tp411
I1
tp412
F0.0
s(g40
I0
tp413
F0.582586368
s((I280
I90
I-8
tp414
I1
tp415
F0.0
s(g66
I1
tp416
F0.0
s(g44
I0
tp417
F0.9539049455616
s((I80
I-30
I8
tp418
I1
tp419
F0.0
s((I120
I-150
I-10
tp420
I1
tp421
F0.0
s(g52
I0
tp422
F0.6719999999999999
s((I120
I-60
I2
tp423
I0
tp424
F0.4992
s((I200
I-90
I-2
tp425
I1
tp426
F0.0
s((I320
I-60
I-8
tp427
I0
tp428
F1.0000896000000001
s((I40
I-180
I-4
tp429
I1
tp430
F0.0
s(g56
I0
tp431
F1.177601221449392
s((I80
I-180
I-4
tp432
I0
tp433
F0.6912
s(g88
I1
tp434
F0.0
s((I320
I30
I-4
tp435
I1
tp436
F0.0
s((I240
I60
I-8
tp437
I1
tp438
F0.0
s(g68
I0
tp439
F1.063591341766802
s((I360
I-30
I6
tp440
I1
tp441
F0.0
s(g74
I0
tp442
F1.9369057881957885
s((I200
I-180
I-10
tp443
I1
tp444
F0.0
s((I0
I-120
I-6
tp445
I1
tp446
F-399.92
s(g76
I0
tp447
F1.0047608337439244
s((I240
I150
I-10
tp448
I1
tp449
F0.0
s((I80
I-90
I-4
tp450
I1
tp451
F0.0
s(g78
I0
tp452
F0.507648
s((I400
I-90
I-10
tp453
I1
tp454
F0.0
s((I360
I30
I2
tp455
I1
tp456
F0.0
s(g82
I0
tp457
F-479.9657216
s((I320
I0
I4
tp458
I1
tp459
F0.0
s((I160
I-240
I10
tp460
I0
tp461
F-399.820752625664
s(g86
I0
tp462
F1.07575296
s((I320
I0
I-8
tp463
I1
tp464
F0.0
s((I0
I-150
I0
tp465
I1
tp466
F-438.31232
s((I160
I0
I4
tp467
I1
tp468
F0.0
s(g96
I0
tp469
F0.6912
s((I240
I-150
I-10
tp470
I1
tp471
F0.0
s((I360
I0
I6
tp472
I0
tp473
F2.993208152988627
s((I200
I180
I-10
tp474
I1
tp475
F0.0
s((I40
I90
I2
tp476
I1
tp477
F0.0
s(g102
I0
tp478
F0.905883648
s(g104
I0
tp479
F0.754739636207616
s(g106
I0
tp480
F1.235062355740104
s(g381
I1
tp481
F0.0
s((I40
I-120
I-10
tp482
I1
tp483
F0.0
s((I280
I30
I4
tp484
I1
tp485
F0.0
s(g116
I0
tp486
F0.582586368
s(g120
I0
tp487
F28.846519369142115
s(g124
I0
tp488
F0.717147209859072
s((I120
I-180
I-8
tp489
I1
tp490
F0.0
s((I320
I60
I-4
tp491
I1
tp492
F0.0
s(g132
I0
tp493
F1.3451802846711203
s((I200
I-30
I-8
tp494
I1
tp495
F21.795145463222706
s(g134
I0
tp496
F1.1533146229073037
s((I0
I-210
I-8
tp497
I1
tp498
F0.0
s(g140
I0
tp499
F1.1513420849885478
s(g142
I0
tp500
F0.6912
s((I80
I-60
I10
tp501
I1
tp502
F0.0
s((I0
I-30
I-10
tp503
I1
tp504
F0.0
s(g146
I0
tp505
F-45.044399246746394
s((I120
I-90
I6
tp506
I0
tp507
F0.4992
s((I0
I-180
I4
tp508
I1
tp509
F0.0
s(g152
I0
tp510
F0.4992
s(g154
I0
tp511
F19.328742680470278
s(g156
I0
tp512
F0.6912
s((I360
I0
I-4
tp513
I1
tp514
F0.0
s(g158
I0
tp515
F1.000194048
s(g162
I0
tp516
F1.1911737419785942
s((I120
I60
I0
tp517
I1
tp518
F0.0
s(g293
I1
tp519
F0.0
s(g164
I0
tp520
F0.4992
s(g168
I0
tp521
F1.1813804110925457
s((I240
I-120
I10
tp522
I1
tp523
F0.0
s(g172
I0
tp524
F0.6912
s(g176
I0
tp525
F0.48
s((I80
I-60
I-6
tp526
I1
tp527
F0.0
s(g460
I1
tp528
F0.0
s((I320
I-30
I-2
tp529
I0
tp530
F0.6912
s((I400
I60
I-10
tp531
I1
tp532
F0.0
s((I80
I-180
I2
tp533
I1
tp534
F0.0
s((I280
I0
I-6
tp535
I1
tp536
F0.0
s((I80
I60
I-10
tp537
I0
tp538
F0.6719999999999999
s((I240
I-180
I8
tp539
I1
tp540
F0.0
s(g188
I0
tp541
F0.9798308822658033
s((I0
I-150
I-2
tp542
I0
tp543
F-191.45472
s((I320
I120
I4
tp544
I0
tp545
F0.8220241920000001
s((I80
I-90
I10
tp546
I1
tp547
F0.0
s((I0
I-240
I6
tp548
I1
tp549
F0.48
s((I80
I-90
I-8
tp550
I1
tp551
F0.0
s((I360
I-60
I0
tp552
I0
tp553
F1.186673110821898
s((I200
I-120
I10
tp554
I1
tp555
F1.0946540965724159
s((I40
I90
I-6
tp556
I0
tp557
F0.6719999999999999
s((I40
I-120
I-6
tp558
I1
tp559
F0.0
s((I120
I-120
I2
tp560
I1
tp561
F0.0
s((I160
I-30
I-8
tp562
I0
tp563
F0.48
s((I200
I-150
I8
tp564
I1
tp565
F0.5831836338511607
s((I400
I-60
I-8
tp566
I1
tp567
F10.782636784638168
s((I240
I30
I2
tp568
I1
tp569
F0.0
s(g207
I0
tp570
F4.399999999999999
s(g414
I0
tp571
F0.6938112
s(g245
I1
tp572
F0.0
s(g215
I0
tp573
F0.48
s((I360
I-30
I0
tp574
I0
tp575
F1.2419799265825124
s((I120
I90
I4
tp576
I0
tp577
F0.48
s((I360
I60
I-6
tp578
I0
tp579
F1.1530404114451145
s((I160
I-120
I-2
tp580
I1
tp581
F0.0
s((I160
I-120
I6
tp582
I1
tp583
F0.0
s(g233
I0
tp584
F2.486775840768
s((I240
I60
I-4
tp585
I1
tp586
F0.0
s(g237
I0
tp587
F5.811210686312865
s(g239
I0
tp588
F-399.89076115456004
s((I240
I-90
I10
tp589
I1
tp590
F0.48
s((I200
I90
I4
tp591
I1
tp592
F0.0
s((I280
I-120
I4
tp593
I1
tp594
F0.0
s((I400
I-150
I-10
tp595
I1
tp596
F2.018013051770386
s((I160
I-90
I-10
tp597
I1
tp598
F0.0
s(g259
I0
tp599
F0.6912
s(g263
I0
tp600
F1.1072710884827353
s(g265
I0
tp601
F24.0
s(g267
I0
tp602
F1.2229884579406969
s((I240
I120
I2
tp603
I1
tp604
F0.0
s(g279
I0
tp605
F0.6912
s((I0
I-120
I-8
tp606
I1
tp607
F0.0
s((I120
I-30
I-6
tp608
I1
tp609
F0.0
s((I360
I-60
I4
tp610
I1
tp611
F0.0
s(g285
I0
tp612
F1.0425494737377146
s((I80
I-30
I10
tp613
I0
tp614
F0.6912
s((I160
I0
I2
tp615
I1
tp616
F0.0
s((I80
I-180
I-6
tp617
I1
tp618
F0.0
s((I360
I-90
I4
tp619
I1
tp620
F0.0
s(g291
I0
tp621
F1.071271389246259
s((I360
I30
I0
tp622
I1
tp623
F0.0
s((I320
I120
I-10
tp624
I1
tp625
F1.1048344225186386
s((I40
I-90
I-8
tp626
I1
tp627
F0.0
s((I40
I-90
I-4
tp628
I0
tp629
F0.0
s((I0
I-90
I-10
tp630
I1
tp631
F-480.0
s(g409
I0
tp632
F1.226943813225723
s(g299
I0
tp633
F1.1183948999282658
s(g54
I1
tp634
F0.0
s(g301
I0
tp635
F0.965507039232
s((I40
I-150
I-10
tp636
I1
tp637
F0.0
s(g311
I0
tp638
F0.48
s((I320
I60
I-2
tp639
I0
tp640
F0.582586368
s((I240
I-30
I10
tp641
I0
tp642
F4.216300428166284
s(g349
I1
tp643
F0.0
s((I280
I-180
I10
tp644
I1
tp645
F1.065989978387487
s(g327
I0
tp646
F1.126397375796233
s(g180
I0
tp647
F18.913740618313238
s((I80
I-60
I0
tp648
I1
tp649
F0.0
s(g337
I0
tp650
F-399.83100449749037
s((I200
I-240
I10
tp651
I1
tp652
F0.0
s((I120
I-30
I-8
tp653
I0
tp654
F0.6719999999999999
s((I320
I90
I-10
tp655
I0
tp656
F1.1510355511203187
s((I200
I-30
I-10
tp657
I1
tp658
F0.0
s(g347
I0
tp659
F34.56
s((I280
I-90
I0
tp660
I1
tp661
F0.0
s((I280
I-30
I0
tp662
I1
tp663
F0.0
s(g363
I0
tp664
F0.48
s((I200
I-120
I-2
tp665
I1
tp666
F0.0
s((I240
I180
I2
tp667
I1
tp668
F0.0
s((I280
I120
I6
tp669
I1
tp670
F0.0
s(g369
I0
tp671
F0.4992
s((I-40
I0
I0
tp672
I1
tp673
F0.0
s((I200
I-210
I10
tp674
I0
tp675
F0.6912
s((I0
I-150
I-8
tp676
I1
tp677
F0.0
s(g378
I0
tp678
F12.716675321469854
s((I320
I-30
I2
tp679
I1
tp680
F0.0
s((I240
I30
I10
tp681
I1
tp682
F0.0
s(g385
I0
tp683
F1.192907719559139
s(g387
I0
tp684
F4.74668655681913
s((I280
I210
I-4
tp685
I1
tp686
F-443.5334985728
s((I40
I0
I-2
tp687
I1
tp688
F0.0
s(g389
I0
tp689
F0.48
s(g391
I0
tp690
F0.6912
s((I200
I-120
I8
tp691
I1
tp692
F0.0
s((I80
I-60
I-2
tp693
I0
tp694
F1.1921513331006994
s(g394
I0
tp695
F0.7444302975286269
s((I360
I0
I0
tp696
I0
tp697
F3.4532153354533257
s((I360
I-60
I-4
tp698
I1
tp699
F0.0
s((I320
I-30
I-8
tp700
I1
tp701
F0.0
s(g399
I0
tp702
F9.679288418304
s((I200
I-150
I-6
tp703
I1
tp704
F0.0
s((I120
I-120
I0
tp705
I1
tp706
F0.0
s((I120
I60
I-6
tp707
I1
tp708
F0.0
s((I40
I-210
I0
tp709
I1
tp710
F0.0
s(g402
I0
tp711
F0.95391119572992
s(g70
I1
tp712
F0.0
s((I160
I-90
I2
tp713
I1
tp714
F0.0
s(g405
I0
tp715
F1.1208301996507954
s((I200
I-120
I4
tp716
I1
tp717
F0.0
s(g411
I0
tp718
F0.9251918200409298
s((I280
I180
I-2
tp719
I1
tp720
F0.0
s(g418
I0
tp721
F0.8135307264
s(g235
I0
tp722
F1.003634809923384
s((I40
I0
I10
tp723
I1
tp724
F0.0
s((I280
I30
I6
tp725
I1
tp726
F0.0
s(g420
I0
tp727
F0.7137326214414336
s((I160
I-60
I-4
tp728
I1
tp729
F0.0
s(g425
I0
tp730
F0.9879552
s(g429
I0
tp731
F0.507648
s((I200
I30
I6
tp732
I1
tp733
F0.0
s(g72
I0
tp734
F0.91051008
s(g437
I0
tp735
F0.6719999999999999
s((I320
I120
I-4
tp736
I1
tp737
F0.0
s(g100
I0
tp738
F0.0
s((I120
I0
I8
tp739
I1
tp740
F0.0
s(g443
I0
tp741
F1.1317278812497593
s((I160
I30
I-4
tp742
I1
tp743
F0.0
s(g445
I0
tp744
F-207.469952
s(g448
I0
tp745
F0.48
s((I160
I-180
I10
tp746
I1
tp747
F0.0
s((I80
I0
I10
tp748
I1
tp749
F0.0
s(g450
I0
tp750
F1.00022488418842
s(g453
I0
tp751
F5.654054025339222
s(g455
I0
tp752
F8.29523464814592
s((I80
I-240
I10
tp753
I1
tp754
F0.0
s(g458
I0
tp755
F4.761578081979447
s(g463
I0
tp756
F1.6620708618460032
s((I200
I-60
I-4
tp757
I0
tp758
F0.92849674125312
s(g199
I0
tp759
F0.5254924805603328
s((I40
I-210
I-10
tp760
I1
tp761
F0.0
s((I400
I0
I-6
tp762
I1
tp763
F1.2105087689230654
s(g467
I0
tp764
F17.911680434543
s(g470
I0
tp765
F1.1389046438239343
s((I160
I-180
I6
tp766
I1
tp767
F0.0
s(g474
I0
tp768
F0.5184
s(g476
I0
tp769
F0.4992
s((I80
I-60
I-8
tp770
I1
tp771
F0.48
s(g482
I0
tp772
F1.1531128652270042
s((I0
I-240
I8
tp773
I1
tp774
F0.0
s((I80
I-180
I0
tp775
I1
tp776
F0.0
s(g484
I0
tp777
F20.69793665789584
s(g489
I0
tp778
F0.9655511580672
s((I120
I-180
I10
tp779
I1
tp780
F0.0
s(g80
I1
tp781
F0.0
s(g178
I1
tp782
F0.48
s(g491
I0
tp783
F1.000194048
s(g494
I0
tp784
F4.246695526517648
s(g497
I0
tp785
F-400.0
s((I40
I-180
I4
tp786
I1
tp787
F0.0
s((I0
I-120
I10
tp788
I1
tp789
F0.0
s((I280
I-90
I8
tp790
I1
tp791
F0.0
s(g501
I0
tp792
F0.8791384110097371
s(g503
I0
tp793
F0.6719999999999999
s((I320
I-90
I-8
tp794
I1
tp795
F0.0
s((I200
I60
I10
tp796
I0
tp797
F2.531541607703076
s((I280
I150
I-6
tp798
I1
tp799
F-399.836288
s((I360
I0
I2
tp800
I0
tp801
F1.1775036211165315
s(g508
I0
tp802
F-399.9008
s((I40
I-150
I-4
tp803
I1
tp804
F0.0
s((I280
I60
I6
tp805
I1
tp806
F0.0
s(g513
I0
tp807
F30.39354801069924
s((I200
I-150
I10
tp808
I1
tp809
F-400.0
s((I320
I0
I-10
tp810
I1
tp811
F0.0
s(g537
I1
tp812
F0.0
s(g517
I0
tp813
F0.6912
s((I160
I30
I10
tp814
I0
tp815
F18.041219716403056
s(g610
I0
tp816
F1.0188734710572591
s((I360
I0
I-8
tp817
I1
tp818
F0.0
s(g542
I1
tp819
F0.0
s(g522
I0
tp820
F1.2317225512960954
s((I280
I150
I-10
tp821
I1
tp822
F-445.9506655725617
s(g544
I1
tp823
F0.0
s((I160
I-120
I4
tp824
I1
tp825
F0.0
s(g526
I0
tp826
F1.1702454723913058
s((I120
I-60
I-4
tp827
I1
tp828
F0.0
s(g531
I0
tp829
F1.056751745222655
s((I200
I30
I-10
tp830
I0
tp831
F1.092893687808
s((I360
I60
I-8
tp832
I1
tp833
F1.1250181268091903
s(g533
I0
tp834
F1.0944819658751999
s(g535
I0
tp835
F1.3648336905785514
s((I40
I-210
I6
tp836
I1
tp837
F0.0
s((I240
I-120
I6
tp838
I1
tp839
F0.0
s((I0
I-150
I10
tp840
I1
tp841
F0.691968
s(g539
I0
tp842
F1.153849748915375
s(g50
I0
tp843
F1.0878830995996882
s((I320
I150
I2
tp844
I1
tp845
F0.0
s((I320
I-60
I10
tp846
I1
tp847
F0.0
s(g546
I0
tp848
F0.9302726342050476
s((I120
I30
I6
tp849
I0
tp850
F17.203200000000002
s(g548
I0
tp851
F-399.9008
s((I200
I60
I8
tp852
I1
tp853
F0.0
s(g554
I0
tp854
F-399.7732387753601
s((I360
I30
I-10
tp855
I1
tp856
F1.2091316158737089
s(g98
I1
tp857
F0.0
s((I0
I-270
I10
tp858
I0
tp859
F-400.0
s(g558
I0
tp860
F-37.64842286418491
s((I0
I30
I-6
tp861
I1
tp862
F0.0
s((I0
I-30
I-8
tp863
I1
tp864
F0.0
s(g560
I0
tp865
F0.4992
s((I80
I90
I4
tp866
I1
tp867
F0.0
s(g205
I0
tp868
F17.98173483410759
s(g564
I0
tp869
F-399.92
s(g566
I0
tp870
F1.3131320817190204
s(g568
I0
tp871
F21.219054728637825
s((I320
I150
I-4
tp872
I1
tp873
F0.0
s((I280
I0
I8
tp874
I1
tp875
F0.0
s((I80
I-180
I-8
tp876
I1
tp877
F0.0
s((I400
I-60
I-4
tp878
I1
tp879
F0.0
s(g361
I1
tp880
F0.0
s((I80
I-240
I-6
tp881
I1
tp882
F0.0
s(g580
I0
tp883
F1.220337748695633
s(g582
I0
tp884
F0.696465135234665
s((I240
I-120
I-8
tp885
I1
tp886
F0.0
s((I160
I-150
I-8
tp887
I1
tp888
F0.0
s((I360
I-60
I-10
tp889
I1
tp890
F0.0
s(g423
I1
tp891
F0.0
s(g589
I0
tp892
F0.7190977098734861
s(g211
I0
tp893
F0.7350012443048755
s(g591
I0
tp894
F0.6912
s((I160
I-90
I0
tp895
I1
tp896
F0.0
s(g593
I0
tp897
F0.48
s((I400
I-150
I-10
tp898
I0
tp899
F0.0
s(g597
I0
tp900
F0.6719999999999999
s(g472
I1
tp901
F1.1430319031138214
s((I160
I-120
I10
tp902
I0
tp903
F0.965507039232
s((I320
I0
I8
tp904
I1
tp905
F0.0
s((I120
I-60
I-6
tp906
I0
tp907
F1.206762984482151
s(g603
I0
tp908
F0.48
s((I0
I0
I-8
tp909
I1
tp910
F0.0
s((I80
I60
I8
tp911
I1
tp912
F0.0
s(g606
I0
tp913
F0.48
s(g608
I0
tp914
F17.203200000000002
s((I280
I-180
I-10
tp915
I1
tp916
F0.0
s((I360
I30
I4
tp917
I1
tp918
F0.0
s((I120
I-180
I2
tp919
I1
tp920
F0.0
s((I280
I60
I4
tp921
I0
tp922
F11.56906401563963
s(g432
I1
tp923
F0.0
s((I80
I-180
I10
tp924
I1
tp925
F0.0
s(g615
I0
tp926
F24.771072000000004
s((I280
I30
I-2
tp927
I1
tp928
F0.0
s(g617
I0
tp929
F0.6912
s(g655
I1
tp930
F0.48
s(g639
I1
tp931
F0.0
s(g624
I0
tp932
F0.9288602892990677
s(g641
I1
tp933
F0.0
s(g626
I0
tp934
F0.6912
s((I200
I-120
I-4
tp935
I1
tp936
F0.0
s((I120
I-150
I6
tp937
I1
tp938
F0.0
s(g630
I0
tp939
F-415.9168
s(g529
I1
tp940
F0.0
s((I0
I-240
I-10
tp941
I1
tp942
F0.0
s((I280
I120
I4
tp943
I1
tp944
F0.0
s(g636
I0
tp945
F0.6719999999999999
s((I240
I180
I6
tp946
I1
tp947
F0.0
s((I400
I-90
I-8
tp948
I1
tp949
F0.0
s((I200
I-150
I2
tp950
I1
tp951
F0.0
s((I320
I-90
I10
tp952
I1
tp953
F0.0
s((I320
I180
I-6
tp954
I1
tp955
F0.0
s((I400
I-30
I-2
tp956
I1
tp957
F0.0
s((I80
I-90
I6
tp958
I1
tp959
F0.0
s(g644
I0
tp960
F-479.95726966784
s(g814
I1
tp961
F0.0
s((I80
I-30
I4
tp962
I1
tp963
F0.0
s((I240
I120
I-2
tp964
I1
tp965
F0.0
s(g651
I0
tp966
F-479.9657216
s((I320
I30
I6
tp967
I1
tp968
F0.0
s(g657
I0
tp969
F14.306024485140423
s((I80
I60
I-6
tp970
I0
tp971
F0.48
s(g622
I0
tp972
F10.762871777631531
s((I160
I60
I-10
tp973
I0
tp974
F0.48
s(g128
I1
tp975
F0.0
s(g662
I0
tp976
F0.9964339200000001
s((I320
I30
I2
tp977
I0
tp978
F25.806108902151937
s((I360
I0
I-10
tp979
I1
tp980
F0.0
s((I200
I60
I0
tp981
I1
tp982
F0.0
s((I160
I-120
I-6
tp983
I1
tp984
F0.0
s(g665
I0
tp985
F0.90682368
s((I280
I60
I8
tp986
I1
tp987
F0.0
s((I200
I-60
I-8
tp988
I0
tp989
F0.48
s((I280
I-120
I-10
tp990
I0
tp991
F0.9908428800000001
s(g130
I1
tp992
F0.0
s((I160
I-150
I8
tp993
I1
tp994
F0.0
s((I240
I90
I-6
tp995
I1
tp996
F0.0
s(g672
I0
tp997
F34.56
s((I40
I-150
I-8
tp998
I1
tp999
F0.0
s(g676
I0
tp1000
F-400.0
s((I320
I30
I-2
tp1001
I0
tp1002
F2.435802737244016
s(g681
I0
tp1003
F17.499955200000002
s((I0
I0
I-10
tp1004
I1
tp1005
F0.0
s((I280
I-60
I0
tp1006
I1
tp1007
F0.0
s((I40
I90
I-2
tp1008
I1
tp1009
F0.0
s((I320
I-120
I8
tp1010
I1
tp1011
F0.0
s(g685
I0
tp1012
F-83.81994544014873
s((I320
I-90
I6
tp1013
I1
tp1014
F0.8678400000000001
s(g687
I0
tp1015
F34.56
s((I320
I-30
I6
tp1016
I1
tp1017
F15.515392357480733
s((I360
I-60
I2
tp1018
I1
tp1019
F0.0
s(g691
I0
tp1020
F1.0151181692558031
s((I40
I-90
I8
tp1021
I1
tp1022
F0.0
s((I280
I90
I10
tp1023
I1
tp1024
F0.0
s(g858
I1
tp1025
F0.0
s(g698
I0
tp1026
F1.1931767067721435
s(g700
I0
tp1027
F17.203200000000002
s(g703
I0
tp1028
F1.2174031435247439
s((I160
I30
I-10
tp1029
I1
tp1030
F0.0
s(g705
I0
tp1031
F0.6719999999999999
s(g709
I0
tp1032
F1.000194048
s(g713
I0
tp1033
F1.1783022005930721
s((I320
I180
I-10
tp1034
I1
tp1035
F0.0
s((I200
I-150
I-2
tp1036
I1
tp1037
F0.0
s(g716
I0
tp1038
F0.915406848
s(g719
I0
tp1039
F0.6912
s((I80
I-180
I-2
tp1040
I1
tp1041
F0.0
s(g723
I0
tp1042
F0.8479999999999999
s((I40
I-60
I-10
tp1043
I1
tp1044
F0.0
s(g628
I1
tp1045
F0.776448
s((I40
I-30
I10
tp1046
I1
tp1047
F0.0
s(g728
I0
tp1048
F0.7296
s((I160
I-180
I-8
tp1049
I1
tp1050
F0.0
s((I360
I30
I-8
tp1051
I0
tp1052
F1.1814824842732992
s((I200
I-30
I-6
tp1053
I0
tp1054
F0.0
s(g197
I1
tp1055
F0.0
s(g736
I0
tp1056
F1.0000896000000001
s((I240
I30
I4
tp1057
I1
tp1058
F0.0
s(g739
I0
tp1059
F1.291209330836685
s((I320
I-30
I-10
tp1060
I1
tp1061
F0.0
s((I120
I90
I-4
tp1062
I1
tp1063
F0.0
s(g746
I0
tp1064
F1.148291611749992
s((I280
I-30
I10
tp1065
I1
tp1066
F0.0
s(g748
I0
tp1067
F33.6
s(g753
I0
tp1068
F0.8819809880498297
s((I200
I-120
I6
tp1069
I1
tp1070
F0.8822202067940463
s((I120
I-90
I-6
tp1071
I1
tp1072
F0.0
s((I160
I60
I-8
tp1073
I0
tp1074
F0.48
s(g760
I0
tp1075
F0.874752
s(g762
I0
tp1076
F0.0
s(g766
I0
tp1077
F0.8389478005906097
s((I320
I0
I2
tp1078
I1
tp1079
F0.0
s((I400
I-30
I-10
tp1080
I1
tp1081
F29.35419048745438
s(g770
I0
tp1082
F0.0
s((I280
I90
I-10
tp1083
I0
tp1084
F0.48
s((I240
I-150
I-8
tp1085
I1
tp1086
F0.0
s(g773
I0
tp1087
F-400.0
s((I40
I-120
I10
tp1088
I1
tp1089
F0.0
s((I0
I-120
I0
tp1090
I1
tp1091
F0.0
s(g775
I0
tp1092
F0.48
s((I120
I-90
I-10
tp1093
I1
tp1094
F0.0
s(g970
I1
tp1095
F0.0
s((I-40
I-30
I6
tp1096
I1
tp1097
F0.0
s(g796
I1
tp1098
F0.0
s(g779
I0
tp1099
F-479.9546847613646
s((I160
I30
I-8
tp1100
I1
tp1101
F0.0
s(g62
I0
tp1102
F0.5964890112
s((I0
I60
I4
tp1103
I0
tp1104
F0.6719999999999999
s((I240
I180
I4
tp1105
I1
tp1106
F0.0
s((I320
I-60
I8
tp1107
I1
tp1108
F0.0
s(g786
I0
tp1109
F0.6912
s((I200
I-150
I4
tp1110
I1
tp1111
F0.0
s(g788
I0
tp1112
F-479.98400000000004
s(g138
I0
tp1113
F0.6912
s((I160
I-30
I-10
tp1114
I1
tp1115
F0.0
s(g794
I0
tp1116
F0.48
s((I0
I-30
I-6
tp1117
I1
tp1118
F0.48
s(g798
I0
tp1119
F0.0
s(g803
I0
tp1120
F0.8796672
s((I160
I-150
I2
tp1121
I1
tp1122
F0.0
s(g830
I1
tp1123
F0.0
s(g805
I0
tp1124
F9.337206751436685
s(g808
I0
tp1125
F-14.841660985268703
s((I200
I0
I-6
tp1126
I1
tp1127
F0.0
s(g810
I0
tp1128
F4.657416019947075
s(g295
I0
tp1129
F25.147114291199998
s(g1083
I1
tp1130
F0.0
s(g821
I0
tp1131
F-399.86560000000003
s(g849
I1
tp1132
F0.0
s(g824
I0
tp1133
F1.1249029619199824
s((I160
I-150
I-6
tp1134
I1
tp1135
F0.0
s(g827
I0
tp1136
F1.182995346391745
s((I360
I120
I-6
tp1137
I1
tp1138
F0.0
s((I320
I90
I-6
tp1139
I0
tp1140
F0.7325184
s((I120
I60
I-8
tp1141
I1
tp1142
F0.0
s(g838
I0
tp1143
F0.6325071810158512
s((I280
I-90
I-2
tp1144
I1
tp1145
F0.0
s((I320
I30
I-6
tp1146
I0
tp1147
F1.19767890675786
s((I160
I-120
I0
tp1148
I1
tp1149
F0.0
s(g840
I0
tp1150
F-399.9008
s((I200
I-60
I10
tp1151
I1
tp1152
F10.402970717726042
s((I160
I30
I-2
tp1153
I1
tp1154
F0.0
s(g562
I1
tp1155
F0.0
s(g844
I0
tp1156
F0.8980684800000001
s(g846
I0
tp1157
F1.2111641031167697
s((I200
I-150
I-10
tp1158
I1
tp1159
F0.0
s(g852
I0
tp1160
F4.17587179387973
s((I40
I-180
I10
tp1161
I1
tp1162
F0.0
s(g855
I0
tp1163
F0.6254196534496441
s(g861
I0
tp1164
F-479.98400000000004
s(g863
I0
tp1165
F34.4032
s(g866
I0
tp1166
F0.811776
s(g1023
I0
tp1167
F0.7856765768564735
s((I80
I-180
I8
tp1168
I1
tp1169
F0.0
s((I400
I30
I-8
tp1170
I1
tp1171
F0.0
s(g872
I0
tp1172
F0.6912
s(g874
I0
tp1173
F3.830633473353517
s(g876
I0
tp1174
F0.6912
s((I400
I-120
I-10
tp1175
I1
tp1176
F1.6591326001494822
s((I280
I-150
I-4
tp1177
I1
tp1178
F0.0
s(g878
I0
tp1179
F0.8347361280000001
s((I200
I0
I10
tp1180
I1
tp1181
F0.0
s(g648
I0
tp1182
F1.1117525223017881
s(g881
I0
tp1183
F1.000194048
s(g190
I1
tp1184
F0.0
s(g556
I1
tp1185
F0.0
s(g885
I0
tp1186
F0.9964339200000001
s(g887
I0
tp1187
F0.4992
s(g906
I1
tp1188
F0.0
s((I200
I30
I10
tp1189
I0
tp1190
F1.3620055507344553
s((I40
I-60
I2
tp1191
I1
tp1192
F0.0
s(g889
I0
tp1193
F5.258561508830621
s((I160
I0
I-4
tp1194
I1
tp1195
F0.0
s(g707
I0
tp1196
F0.6912
s((I120
I-150
I-4
tp1197
I1
tp1198
F0.0
s(g895
I0
tp1199
F1.1812528019744766
s((I320
I180
I-8
tp1200
I1
tp1201
F0.0
s(g1029
I0
tp1202
F0.6719999999999999
s(g742
I0
tp1203
F2.974526343327252
s((I120
I-120
I6
tp1204
I1
tp1205
F0.0
s((I40
I-210
I10
tp1206
I1
tp1207
F1.0524696576
s(g904
I0
tp1208
F1.2448506181612642
s((I80
I90
I6
tp1209
I0
tp1210
F5.965363199999999
s(g174
I1
tp1211
F0.0
s((I280
I-120
I2
tp1212
I1
tp1213
F0.0
s(g909
I0
tp1214
F0.48
s((I360
I0
I-6
tp1215
I0
tp1216
F2.2653565778453784
s(g911
I0
tp1217
F0.560615424
s((I240
I120
I-4
tp1218
I1
tp1219
F0.0
s((I80
I-120
I8
tp1220
I1
tp1221
F0.0
s(g915
I0
tp1222
F1.1539440616209886
s(g275
I1
tp1223
F1.2044570550244174
s((I280
I30
I8
tp1224
I1
tp1225
F0.0
s(g919
I0
tp1226
F0.9877411430399998
s((I240
I-60
I6
tp1227
I1
tp1228
F0.0
s(g924
I0
tp1229
F0.8982242488401665
s(g927
I0
tp1230
F5.7694718873834265
s(g952
I0
tp1231
F1.2335585729090526
s(g660
I0
tp1232
F0.6912
s((I160
I-90
I-6
tp1233
I1
tp1234
F0.0
s(g935
I0
tp1235
F0.637415138330844
s(g937
I0
tp1236
F1.07643964096512
s(g941
I0
tp1237
F-399.92
s(g943
I0
tp1238
F0.9360194764800001
s(g946
I0
tp1239
F0.89556989509632
s((I160
I-150
I10
tp1240
I1
tp1241
F0.0
s((I240
I-120
I2
tp1242
I1
tp1243
F0.0
s(g948
I0
tp1244
F3.686740323773223
s((I40
I-150
I-6
tp1245
I1
tp1246
F0.0
s((I320
I30
I-10
tp1247
I0
tp1248
F0.9091757553471155
s(g950
I0
tp1249
F1.105439487787262
s(g1060
I0
tp1250
F0.6719999999999999
s(g954
I0
tp1251
F1.13992816494379
s((I280
I30
I-4
tp1252
I0
tp1253
F3.1797016453673566
s((I80
I-60
I2
tp1254
I1
tp1255
F0.48
s((I160
I-210
I8
tp1256
I1
tp1257
F0.0
s(g956
I0
tp1258
F1.1456576543412003
s((I320
I60
I-10
tp1259
I1
tp1260
F0.0
s(g958
I0
tp1261
F1.1882734354617985
s(g1114
I0
tp1262
F0.48
s(g552
I1
tp1263
F0.0
s((I240
I120
I10
tp1264
I1
tp1265
F0.0
s((I360
I30
I-4
tp1266
I1
tp1267
F0.0
s(g962
I0
tp1268
F0.6912
s(g964
I0
tp1269
F0.6912
s((I80
I-90
I2
tp1270
I1
tp1271
F0.0
s(g967
I0
tp1272
F18.80196096
s(g988
I1
tp1273
F0.0
s((I360
I-30
I-8
tp1274
I1
tp1275
F0.0
s((I160
I-60
I4
tp1276
I1
tp1277
F0.0
s((I120
I-120
I10
tp1278
I1
tp1279
F0.0
s((I320
I150
I-8
tp1280
I1
tp1281
F0.9518663270400001
s((I120
I-60
I10
tp1282
I1
tp1283
F0.0
s((I280
I120
I8
tp1284
I0
tp1285
F0.5748436992
s(g979
I0
tp1286
F30.498572053750106
s(g981
I0
tp1287
F0.6912
s((I40
I-180
I2
tp1288
I1
tp1289
F0.0
s((I80
I-210
I-8
tp1290
I1
tp1291
F0.0
s((I120
I-180
I-6
tp1292
I1
tp1293
F0.0
s(g983
I0
tp1294
F1.1928198603211788
s(g986
I0
tp1295
F0.4992
s((I120
I-150
I8
tp1296
I1
tp1297
F0.0
s(g757
I1
tp1298
F0.0
s((I120
I60
I-2
tp1299
I1
tp1300
F0.0
s(g993
I0
tp1301
F0.7517183999999999
s(g995
I0
tp1302
F0.6912
s((I280
I150
I-4
tp1303
I1
tp1304
F0.6719999999999999
s(g998
I0
tp1305
F0.6912
s((I120
I0
I-2
tp1306
I1
tp1307
F0.0
s(g800
I1
tp1308
F0.0
s(g1004
I0
tp1309
F4.399999999999999
s(g1006
I0
tp1310
F0.6912
s((I240
I30
I6
tp1311
I1
tp1312
F0.0
s((I200
I-30
I10
tp1313
I1
tp1314
F0.0
s((I240
I-90
I2
tp1315
I1
tp1316
F0.0
s(g1010
I0
tp1317
F1.1411380521273444
s(g1013
I0
tp1318
F0.7972593344479847
s(g1016
I0
tp1319
F0.55670784
s(g1018
I0
tp1320
F1.1628439100234296
s((I280
I-60
I4
tp1321
I1
tp1322
F0.0
s(g1021
I0
tp1323
F1.1243494227581918
s((I160
I60
I0
tp1324
I0
tp1325
F0.4992
s(g902
I1
tp1326
F0.0
s((I320
I90
I-2
tp1327
I1
tp1328
F0.8473667814719329
s((I160
I-30
I10
tp1329
I0
tp1330
F0.5903844267189711
s((I0
I-60
I-10
tp1331
I1
tp1332
F0.0
s(g669
I0
tp1333
F0.9763906682879999
s(g1034
I0
tp1334
F0.9732389059397899
s(g1051
I1
tp1335
F1.0148941824
s(g1036
I0
tp1336
F1.222010056198632
s((I40
I-180
I-2
tp1337
I1
tp1338
F0.0
s(g375
I1
tp1339
F0.0
s(g440
I0
tp1340
F1.8748351927741638
s(g1040
I0
tp1341
F0.4992
s((I240
I-150
I-6
tp1342
I1
tp1343
F0.0
s((I120
I-120
I-10
tp1344
I1
tp1345
F0.0
s(g1043
I0
tp1346
F0.6719999999999999
s((I0
I-90
I10
tp1347
I1
tp1348
F0.0
s(g1046
I0
tp1349
F0.69485568
s((I360
I-30
I4
tp1350
I1
tp1351
F0.0
s((I160
I0
I10
tp1352
I1
tp1353
F0.0
s((I280
I180
I-4
tp1354
I1
tp1355
F0.0
s(g1049
I0
tp1356
F0.85358862336
s((I280
I210
I-8
tp1357
I1
tp1358
F-400.0
s((I400
I30
I-10
tp1359
I1
tp1360
F1.0943255604690707
s((I160
I-60
I0
tp1361
I1
tp1362
F0.0
s(g550
I0
tp1363
F1.1413462583800091
s((I320
I0
I-6
tp1364
I1
tp1365
F0.0
s(g1057
I0
tp1366
F11.918429950391653
s(g1062
I0
tp1367
F0.6912
s((I240
I150
I8
tp1368
I1
tp1369
F0.48
s((I200
I-150
I0
tp1370
I0
tp1371
F0.9422815161588878
s((I280
I30
I2
tp1372
I0
tp1373
F7.8877657024331285
s((I240
I0
I8
tp1374
I1
tp1375
F0.0
s((I200
I-180
I8
tp1376
I1
tp1377
F0.48
s(g679
I0
tp1378
F1.104374940752096
s(g1069
I0
tp1379
F0.557211648
s((I240
I-120
I-2
tp1380
I1
tp1381
F0.0
s((I280
I180
I-6
tp1382
I1
tp1383
F0.0
s((I120
I-270
I10
tp1384
I1
tp1385
F0.0
s(g1071
I0
tp1386
F1.1404686799877133
s((I280
I30
I10
tp1387
I1
tp1388
F0.0
s(g1078
I0
tp1389
F21.799715254483832
s((I160
I-90
I10
tp1390
I1
tp1391
F0.0
s(g1103
I1
tp1392
F0.0
s((I240
I0
I4
tp1393
I1
tp1394
F0.0
s(g1080
I0
tp1395
F5.941191679999999
s(g1085
I0
tp1396
F1.0557583907094528
s(g1088
I0
tp1397
F1.1206237371219745
s(g1090
I0
tp1398
F-400.0
s(g1093
I0
tp1399
F1.2225739659033568
s((I0
I0
I-2
tp1400
I1
tp1401
F0.0
s((I80
I-120
I-8
tp1402
I0
tp1403
F0.6719999999999999
s(g1096
I0
tp1404
F0.6912
s((I280
I-30
I8
tp1405
I1
tp1406
F0.0
s((I280
I180
I4
tp1407
I1
tp1408
F0.0
s(g1105
I0
tp1409
F1.000194048
s((I80
I30
I10
tp1410
I1
tp1411
F0.48
s(g1107
I0
tp1412
F1.2416000546504808
s((I0
I-180
I6
tp1413
I1
tp1414
F0.0
s(g1110
I0
tp1415
F1.1455973588892177
s((I240
I-210
I10
tp1416
I1
tp1417
F1.143261226237089
s((I280
I-120
I-2
tp1418
I1
tp1419
F0.0
s((I400
I0
I-2
tp1420
I1
tp1421
F0.0
s((I120
I-120
I-6
tp1422
I1
tp1423
F1.2054339797194862
s(g1117
I0
tp1424
F0.0
s((I360
I-60
I6
tp1425
I1
tp1426
F0.0
s(g1121
I0
tp1427
F1.1576439560252978
s((I200
I120
I2
tp1428
I1
tp1429
F0.0
s(g1139
I1
tp1430
F1.2112044445228154
s((I120
I-150
I0
tp1431
I1
tp1432
F0.0
s(g1126
I0
tp1433
F1.2701813313298758
s(g1146
I1
tp1434
F0.0
s((I80
I-150
I10
tp1435
I1
tp1436
F0.0
s(g1416
I0
tp1437
F-479.9657216
s(g917
I0
tp1438
F8.850341863096322
s((I200
I0
I-10
tp1439
I1
tp1440
F0.0
s((I120
I-120
I8
tp1441
I1
tp1442
F0.0
s(g1134
I0
tp1443
F1.1008784695296
s(g1137
I0
tp1444
F0.5748436992
s((I400
I-30
I-8
tp1445
I1
tp1446
F0.0
s((I80
I-90
I8
tp1447
I1
tp1448
F0.0
s(g1141
I0
tp1449
F0.6912
s(g1144
I0
tp1450
F0.6912
s(g339
I0
tp1451
F0.6912
s(g1148
I0
tp1452
F1.0055164404704913
s((I280
I180
I-10
tp1453
I0
tp1454
F-479.9568889929891
s(g1151
I0
tp1455
F0.0
s(g1153
I0
tp1456
F9.374859170174258
s((I40
I-120
I-4
tp1457
I1
tp1458
F0.0
s((I40
I0
I2
tp1459
I1
tp1460
F24.0
s((I120
I-120
I4
tp1461
I1
tp1462
F1.1415637596125732
s((I280
I90
I6
tp1463
I1
tp1464
F0.0
s(g1324
I1
tp1465
F0.0
s(g1158
I0
tp1466
F1.1743632455135402
s((I40
I-180
I-10
tp1467
I1
tp1468
F0.0
s(g1161
I0
tp1469
F0.8899584
s(g1227
I0
tp1470
F0.9639628800000001
s((I80
I-210
I-10
tp1471
I1
tp1472
F0.0
s((I200
I-60
I-10
tp1473
I1
tp1474
F0.0
s(g1189
I1
tp1475
F0.0
s(g1168
I0
tp1476
F0.8159640483725223
s(g1170
I0
tp1477
F1.0059878789108694
s((I240
I-90
I8
tp1478
I1
tp1479
F0.0
s(g1175
I0
tp1480
F0.563712
s(g1329
I1
tp1481
F0.0
s((I80
I-60
I-10
tp1482
I0
tp1483
F0.48
s(g1180
I0
tp1484
F3.312532684799999
s(g1209
I1
tp1485
F0.0
s((I40
I-90
I6
tp1486
I0
tp1487
F1.1518552076197037
s(g1425
I0
tp1488
F1.1659318325428403
s((I240
I-150
I-4
tp1489
I1
tp1490
F0.0
s(g1191
I0
tp1491
F1.2148021625010634
s((I160
I30
I0
tp1492
I1
tp1493
F0.48
s(g1194
I0
tp1494
F1.04423571456
s(g1197
I0
tp1495
F0.6912
s((I40
I-90
I2
tp1496
I1
tp1497
F0.0
s(g335
I1
tp1498
F0.48
s(g1200
I0
tp1499
F1.1812370292368963
s(g18
I1
tp1500
F0.0
s(g1204
I0
tp1501
F1.0672850381628671
s((I160
I0
I-8
tp1502
I1
tp1503
F0.0
s(g1206
I0
tp1504
F-399.81972992000004
s((I40
I-90
I-6
tp1505
I1
tp1506
F0.0
s(g1212
I0
tp1507
F0.4992
s((I120
I-240
I10
tp1508
I1
tp1509
F0.48
s(g1218
I0
tp1510
F0.6912
s(g973
I1
tp1511
F0.48
s(g1220
I0
tp1512
F1.0988546913308588
s((I120
I-30
I8
tp1513
I1
tp1514
F0.0
s(g1486
I1
tp1515
F0.0
s(g585
I0
tp1516
F0.6912
s(g1224
I0
tp1517
F10.947224494057753
s((I320
I120
I-8
tp1518
I1
tp1519
F1.1683881030897592
s((I360
I-30
I-6
tp1520
I1
tp1521
F7.8014057534399335
s((I240
I-150
I4
tp1522
I1
tp1523
F0.0
s(g1247
I1
tp1524
F0.0
s(g371
I1
tp1525
F0.0
s((I160
I-90
I4
tp1526
I1
tp1527
F0.0
s(g1252
I1
tp1528
F0.0
s(g1233
I0
tp1529
F1.1136819658752
s((I200
I-90
I2
tp1530
I1
tp1531
F0.0
s((I320
I0
I-2
tp1532
I1
tp1533
F0.0
s((I120
I-150
I10
tp1534
I1
tp1535
F1.1805598739129253
s(g574
I1
tp1536
F0.0
s(g1240
I0
tp1537
F1.0478314206249908
s(g1242
I0
tp1538
F1.138735534393511
s(g1245
I0
tp1539
F0.6912
s((I120
I0
I-4
tp1540
I1
tp1541
F0.0
s((I120
I90
I0
tp1542
I1
tp1543
F0.0
s(g1256
I0
tp1544
F0.903119044608
s(g1259
I0
tp1545
F1.237311172957376
s((I200
I30
I8
tp1546
I1
tp1547
F0.0
s((I40
I-240
I4
tp1548
I1
tp1549
F0.0
s((I240
I30
I-8
tp1550
I1
tp1551
F0.0
s((I80
I-210
I10
tp1552
I1
tp1553
F-399.8872576
s(g832
I0
tp1554
F1.159378923420647
s((I200
I90
I8
tp1555
I1
tp1556
F0.0
s(g1264
I0
tp1557
F0.8376421220351999
s(g1266
I0
tp1558
F1.282375772614032
s((I120
I30
I2
tp1559
I1
tp1560
F0.0
s((I280
I-90
I6
tp1561
I1
tp1562
F0.0
s((I320
I60
I-6
tp1563
I1
tp1564
F0.0
s(g1270
I0
tp1565
F1.1733615720240513
s((I120
I-120
I-8
tp1566
I1
tp1567
F0.0
s((I40
I0
I-6
tp1568
I1
tp1569
F0.0
s(g305
I1
tp1570
F0.0
s(g1274
I0
tp1571
F29.074382999118242
s((I40
I-60
I10
tp1572
I1
tp1573
F0.0
s(g1278
I0
tp1574
F1.2122078266003482
s((I280
I-210
I10
tp1575
I0
tp1576
F-399.89714432
s(g1280
I0
tp1577
F0.54838837248
s(g1282
I0
tp1578
F1.2103967744129047
s((I200
I-60
I-6
tp1579
I0
tp1580
F0.6912
s((I-40
I0
I2
tp1581
I1
tp1582
F0.0
s(g725
I0
tp1583
F7.440534542481676
s(g1288
I0
tp1584
F0.694960128
s((I0
I-150
I-10
tp1585
I1
tp1586
F-399.92
s(g1290
I0
tp1587
F0.6912
s(g1292
I0
tp1588
F1.00021450309632
s(g1284
I1
tp1589
F0.0
s(g1296
I0
tp1590
F1.1324083759351011
s((I200
I210
I-8
tp1591
I1
tp1592
F0.0
s((I280
I210
I-6
tp1593
I1
tp1594
F0.6912
s(g1410
I0
tp1595
F-479.3312
s(g1299
I0
tp1596
F0.6912
s(g1303
I0
tp1597
F0.0
s(g1306
I0
tp1598
F17.28
s(g1100
I0
tp1599
F0.9538907406335999
s((I360
I-60
I-2
tp1600
I1
tp1601
F0.0
s(g1311
I0
tp1602
F13.065359302768272
s((I320
I-120
I-8
tp1603
I1
tp1604
F0.0
s(g1313
I0
tp1605
F9.966558091270736
s(g990
I1
tp1606
F0.0
s(g1315
I0
tp1607
F1.1565607658864907
s((I160
I-210
I-10
tp1608
I1
tp1609
F0.0
s((I160
I90
I-6
tp1610
I0
tp1611
F0.48
s(g1321
I0
tp1612
F0.557211648
s(g1177
I0
tp1613
F1.1592378211842476
s((I280
I180
I-8
tp1614
I1
tp1615
F0.0
s(g1327
I0
tp1616
F0.0
s(g1331
I0
tp1617
F-399.92
s((I200
I-120
I-6
tp1618
I0
tp1619
F1.1885998450819635
s(g1337
I0
tp1620
F0.9879552
s((I200
I-60
I0
tp1621
I1
tp1622
F0.0
s(g1342
I0
tp1623
F1.1772507473058558
s(g1344
I0
tp1624
F1.1947531468115107
s(g1347
I0
tp1625
F0.6719999999999999
s((I0
I0
I-4
tp1626
I1
tp1627
F0.0
s(g1350
I0
tp1628
F7.375478773320403
s((I120
I0
I10
tp1629
I1
tp1630
F0.0
s(g1352
I0
tp1631
F1.3640705738547365
s(g1370
I1
tp1632
F0.0
s(g1354
I0
tp1633
F0.6938112
s((I80
I60
I4
tp1634
I0
tp1635
F0.6912
s(g273
I1
tp1636
F0.0
s((I360
I120
I-10
tp1637
I1
tp1638
F0.0
s(g1357
I0
tp1639
F-479.98016
s(g1001
I1
tp1640
F0.0
s(g1359
I0
tp1641
F0.6719999999999999
s((I80
I-30
I-8
tp1642
I1
tp1643
F0.0
s(g1364
I0
tp1644
F20.623600188621456
s((I280
I-120
I-4
tp1645
I1
tp1646
F0.0
s(g732
I0
tp1647
F0.6719999999999999
s((I400
I0
I-4
tp1648
I1
tp1649
F0.0
s(g1368
I0
tp1650
F0.9916108800000001
s((I320
I-180
I10
tp1651
I1
tp1652
F0.0
s(g1374
I0
tp1653
F4.97578106615409
s((I200
I-90
I-6
tp1654
I0
tp1655
F1.0992248584986741
s(g1376
I0
tp1656
F0.0
s((I120
I-150
I2
tp1657
I1
tp1658
F0.0
s(g1380
I0
tp1659
F0.48
s(g674
I1
tp1660
F0.0
s(g1382
I0
tp1661
F-217.56290311044964
s(g1384
I0
tp1662
F-479.9657216
s((I0
I-240
I10
tp1663
I1
tp1664
F0.0
s(g1402
I1
tp1665
F0.0
s(g1387
I0
tp1666
F17.396518177224397
s((I360
I-30
I-4
tp1667
I1
tp1668
F0.0
s(g1390
I0
tp1669
F0.696546066432
s((I360
I-90
I-4
tp1670
I1
tp1671
F0.0
s(g1559
I0
tp1672
F0.6719999999999999
s(g1393
I0
tp1673
F19.057765074530607
s((I0
I-120
I-2
tp1674
I1
tp1675
F0.0
s((I400
I-30
I-6
tp1676
I1
tp1677
F0.0
s((I120
I-180
I-2
tp1678
I1
tp1679
F0.0
s(g1400
I0
tp1680
F34.56
s(g1073
I1
tp1681
F0.0
s((I80
I-60
I8
tp1682
I0
tp1683
F0.965507039232
s(g1405
I0
tp1684
F1.0944378470400002
s((I120
I-90
I4
tp1685
I1
tp1686
F0.0
s((I320
I90
I2
tp1687
I1
tp1688
F0.0
s(g1407
I0
tp1689
F1.0150518325248
s((I280
I150
I-8
tp1690
I1
tp1691
F0.0
s((I200
I-120
I-8
tp1692
I1
tp1693
F0.0
s(g1413
I0
tp1694
F-400.0
s((I240
I180
I8
tp1695
I1
tp1696
F0.0
s((I280
I60
I0
tp1697
I1
tp1698
F0.0
s((I240
I210
I-10
tp1699
I0
tp1700
F-400.0
s(g1418
I0
tp1701
F0.9770124629836828
s((I120
I-60
I4
tp1702
I0
tp1703
F0.48
s(g1699
I1
tp1704
F0.0
s((I240
I-90
I-2
tp1705
I1
tp1706
F0.0
s(g1420
I0
tp1707
F14.836163601858216
s((I0
I-180
I10
tp1708
I1
tp1709
F0.0
s(g1422
I0
tp1710
F0.80256
s((I360
I60
I-2
tp1711
I0
tp1712
F0.0
s(g1215
I1
tp1713
F0.0
s(g578
I1
tp1714
F0.557930496
s((I280
I-60
I8
tp1715
I1
tp1716
F0.0
s((I240
I0
I6
tp1717
I1
tp1718
F0.0
s(g1428
I0
tp1719
F0.6719999999999999
s(g1431
I0
tp1720
F0.6912
s((I120
I-60
I-2
tp1721
I1
tp1722
F0.0
s(g613
I1
tp1723
F0.0
s(g653
I1
tp1724
F0.0
s(g1453
I1
tp1725
F-479.96730867482626
s((I160
I-150
I4
tp1726
I1
tp1727
F0.0
s(g1435
I0
tp1728
F0.9195016778361975
s((I320
I-90
I4
tp1729
I0
tp1730
F0.9901247645582029
s(g1439
I0
tp1731
F24.865804488891435
s(g1441
I0
tp1732
F1.144867583307334
s(g1276
I0
tp1733
F0.6912
s((I360
I90
I-6
tp1734
I0
tp1735
F1.129628737940073
s((I280
I0
I-8
tp1736
I1
tp1737
F0.0
s((I320
I150
I0
tp1738
I1
tp1739
F0.0
s(g1445
I0
tp1740
F11.735167652287867
s(g1447
I0
tp1741
F1.0673121895722317
s((I240
I60
I-2
tp1742
I1
tp1743
F0.0
s(g396
I0
tp1744
F0.57978366984192
s((I200
I-180
I-6
tp1745
I1
tp1746
F0.0
s(g1457
I0
tp1747
F0.6912
s((I80
I-90
I4
tp1748
I1
tp1749
F0.0
s(g1459
I0
tp1750
F24.0
s((I0
I30
I-8
tp1751
I1
tp1752
F0.0
s(g1461
I0
tp1753
F0.48
s((I80
I-90
I-2
tp1754
I1
tp1755
F0.0
s(g1463
I0
tp1756
F0.699648
s(g1467
I0
tp1757
F1.120876658688
s((I40
I-120
I-8
tp1758
I1
tp1759
F0.0
s(g1471
I0
tp1760
F0.69888
s((I0
I-90
I-4
tp1761
I1
tp1762
F-438.3008
s(g287
I1
tp1763
F0.0
s((I280
I0
I10
tp1764
I1
tp1765
F0.0
s((I280
I90
I8
tp1766
I0
tp1767
F0.711518208
s((I120
I-30
I10
tp1768
I1
tp1769
F0.0
s(g1473
I0
tp1770
F14.206650545454885
s(g1711
I1
tp1771
F1.1815330559257473
s((I400
I-60
I-2
tp1772
I1
tp1773
F0.0
s((I120
I0
I0
tp1774
I0
tp1775
F22.48
s((I240
I-120
I-6
tp1776
I1
tp1777
F0.0
s((I160
I-150
I-10
tp1778
I1
tp1779
F0.0
s((I120
I-90
I8
tp1780
I1
tp1781
F0.0
s((I280
I210
I-10
tp1782
I1
tp1783
F-479.98400000000004
s(g1579
I1
tp1784
F0.0
s(g1478
I0
tp1785
F1.135087761193573
s(g1610
I1
tp1786
F0.0
s((I320
I0
I-4
tp1787
I1
tp1788
F19.983749272146888
s((I240
I90
I-8
tp1789
I1
tp1790
F0.0
s(g1489
I0
tp1791
F0.4992
s((I320
I0
I10
tp1792
I1
tp1793
F0.0
s(g1654
I1
tp1794
F0.0
s((I0
I0
I-6
tp1795
I1
tp1796
F0.0
s((I280
I-60
I2
tp1797
I1
tp1798
F0.0
s(g1496
I0
tp1799
F0.7143449493503999
s((I320
I90
I-8
tp1800
I1
tp1801
F0.0
s((I120
I90
I2
tp1802
I1
tp1803
F0.0
s(g1502
I0
tp1804
F0.6719999999999999
s((I240
I120
I0
tp1805
I1
tp1806
F0.0
s(g1505
I0
tp1807
F0.54607872
s((I160
I-60
I-6
tp1808
I1
tp1809
F0.0
s(g1508
I0
tp1810
F-399.86102886400005
s((I200
I-90
I-10
tp1811
I1
tp1812
F0.0
s((I0
I-120
I-10
tp1813
I1
tp1814
F-479.98400000000004
s((I320
I30
I0
tp1815
I0
tp1816
F12.929951216432757
s((I80
I-180
I4
tp1817
I1
tp1818
F0.0
s((I400
I30
I-4
tp1819
I1
tp1820
F0.0
s((I320
I60
I-8
tp1821
I1
tp1822
F0.0
s((I320
I-90
I8
tp1823
I1
tp1824
F0.0
s(g1513
I0
tp1825
F1.2325170922377775
s((I320
I-30
I8
tp1826
I1
tp1827
F0.0
s(g1734
I1
tp1828
F0.0
s(g1518
I0
tp1829
F0.4992
s(g1520
I0
tp1830
F0.6719999999999999
s((I120
I-150
I4
tp1831
I1
tp1832
F0.0
s(g1522
I0
tp1833
F1.207493017858532
s((I240
I-180
I-8
tp1834
I1
tp1835
F0.0
s((I120
I-150
I-8
tp1836
I1
tp1837
F0.0
s(g1526
I0
tp1838
F1.1764853203087275
s(g383
I0
tp1839
F1.0000896000000001
s(g1530
I0
tp1840
F0.9964339200000001
s(g1532
I0
tp1841
F30.673995634729742
s(g1534
I0
tp1842
F-479.9657216
s((I400
I-30
I-4
tp1843
I1
tp1844
F0.0
s((I200
I210
I-6
tp1845
I1
tp1846
F0.0
s(g1540
I0
tp1847
F17.28
s((I40
I-90
I-10
tp1848
I1
tp1849
F0.0
s((I160
I-180
I-10
tp1850
I1
tp1851
F0.0
s(g1542
I0
tp1852
F0.6912
s(g1546
I0
tp1853
F12.740317934621764
s(g1548
I0
tp1854
F0.502960128
s(g1550
I0
tp1855
F0.48
s(g1552
I0
tp1856
F-479.95884335664505
s(g1555
I0
tp1857
F4.461672493045147
s(g1575
I1
tp1858
F0.0
s(g317
I1
tp1859
F0.0
s((I200
I60
I2
tp1860
I1
tp1861
F0.0
s((I160
I-210
I10
tp1862
I1
tp1863
F1.0578441830399998
s(g1561
I0
tp1864
F0.6719999999999999
s(g1563
I0
tp1865
F1.00134715392
s(g1566
I0
tp1866
F1.1832157035022122
s(g1568
I0
tp1867
F33.6
s(g619
I0
tp1868
F1.1723341595584205
s(g1572
I0
tp1869
F0.69485568
s(g667
I0
tp1870
F0.6912
s(g6
I1
tp1871
F0.0
s(g1581
I0
tp1872
F34.56
s(g1585
I0
tp1873
F-479.98400000000004
s((I160
I-90
I6
tp1874
I1
tp1875
F0.0
s(g10
I1
tp1876
F0.0
s(g14
I1
tp1877
F0.0
s(g16
I1
tp1878
F0.0
s(g1591
I0
tp1879
F-399.92
s(g1593
I0
tp1880
F-400.0
s(g150
I1
tp1881
F0.48
s(g313
I1
tp1882
F0.0
s(g20
I1
tp1883
F0.0
s(g1600
I0
tp1884
F1.177226255671496
s(g28
I1
tp1885
F-229.864704
s(g32
I1
tp1886
F0.0
s(g1603
I0
tp1887
F0.4992
s(g836
I0
tp1888
F0.6912
s(g1608
I0
tp1889
F0.602898628608
s(g319
I1
tp1890
F0.0
s(g42
I1
tp1891
F0.0
s(g46
I1
tp1892
F0.0
s(g48
I1
tp1893
F0.0
s(g1614
I0
tp1894
F-399.7735936769696
s(g331
I1
tp1895
F0.48
s(g4
I0
tp1896
F20.0992
s(g1634
I1
tp1897
F0.0
s(g58
I1
tp1898
F0.48
s(g38
I0
tp1899
F0.6912
s(g64
I1
tp1900
F0.0
s(g427
I1
tp1901
F0.0
s(g1053
I1
tp1902
F13.204913041440767
s(g1626
I0
tp1903
F34.56
s(g1629
I0
tp1904
F0.48
s(g1065
I0
tp1905
F1.196645426841568
s(g1637
I0
tp1906
F1.216065980392468
s((I200
I90
I6
tp1907
I1
tp1908
F0.0
s(g506
I1
tp1909
F0.0
s(g60
I0
tp1910
F1.212299543344945
s(g1642
I0
tp1911
F20.0992
s(g90
I1
tp1912
F0.0
s(g92
I1
tp1913
F0.0
s(g94
I1
tp1914
F0.0
s(g1645
I0
tp1915
F1.2338873198910196
s(g435
I0
tp1916
F2.0582572263968024
s(g576
I1
tp1917
F0.0
s(g1648
I0
tp1918
F26.180818009291084
s(g1651
I0
tp1919
F0.69485568
s(g108
I1
tp1920
F0.0
s(g110
I1
tp1921
F0.0
s(g1657
I0
tp1922
F0.9964339200000001
s(g112
I1
tp1923
F0.0
s(g114
I1
tp1924
F5.2120493690917264
s(g118
I1
tp1925
F0.0
s(g1663
I0
tp1926
F-399.9008
s(g122
I1
tp1927
F0.0
s(g126
I1
tp1928
F0.0
s(g1682
I1
tp1929
F0.0
s(g1667
I0
tp1930
F1.214804394454082
s(g1008
I0
tp1931
F0.6912
s(g693
I1
tp1932
F0.0
s(g1670
I0
tp1933
F0.4992
s(g1674
I0
tp1934
F-399.9008
s(g136
I1
tp1935
F0.0
s(g1676
I0
tp1936
F2.5591748001868897
s(g1702
I1
tp1937
F0.0
s(g1678
I0
tp1938
F1.000194048
s(g1361
I0
tp1939
F1.0043173088026542
s(g148
I1
tp1940
F0.0
s(g1685
I0
tp1941
F0.6719999999999999
s(g1687
I0
tp1942
F0.6719999999999999
s(g1690
I0
tp1943
F0.8486400000000001
s(g1692
I0
tp1944
F1.2114858269333577
s(g160
I1
tp1945
F0.6719999999999999
s(g1695
I0
tp1946
F0.8991743999999999
s(g790
I0
tp1947
F0.6719999999999999
s(g1697
I0
tp1948
F4.805176043399267
s(g144
I0
tp1949
F1.2090764052402598
s(g1729
I1
tp1950
F0.0
s(g1705
I0
tp1951
F0.91854662664192
s(g1708
I0
tp1952
F-400.0
s(g166
I1
tp1953
F0.0
s(g170
I1
tp1954
F0.0
s(g921
I1
tp1955
F0.0
s(g1492
I0
tp1956
F10.684014532959928
s(g1715
I0
tp1957
F0.48
s(g1717
I0
tp1958
F17.57708752496516
s(g1721
I0
tp1959
F1.2032841337494342
s(g1621
I0
tp1960
F0.48
s(g696
I1
tp1961
F0.0
s(g1726
I0
tp1962
F1.1958418342534158
s(g186
I1
tp1963
F0.0
s(g1736
I0
tp1964
F3.724285616612729
s(g1254
I0
tp1965
F1.1893605480699256
s(g1738
I0
tp1966
F0.6912
s(g182
I0
tp1967
F1.2192644738443217
s(g184
I0
tp1968
F0.6912
s(g193
I1
tp1969
F0.0
s(g195
I1
tp1970
F0.0
s(g1766
I1
tp1971
F0.0
s(g1745
I0
tp1972
F1.2279159376254107
s(g1748
I0
tp1973
F1.1055128321522747
s((I200
I90
I10
tp1974
I1
tp1975
F0.0
s(g1751
I0
tp1976
F0.6719999999999999
s(g201
I1
tp1977
F0.0
s(g1754
I0
tp1978
F1.1398012035976397
s(g203
I1
tp1979
F0.0
s(g209
I1
tp1980
F0.0
s(g1758
I0
tp1981
F-191.35636415062038
s(g1761
I0
tp1982
F-400.0
s(g217
I1
tp1983
F0.0
s(g219
I1
tp1984
F0.0
s(g221
I1
tp1985
F0.0
s(g223
I1
tp1986
F0.0
s(g225
I1
tp1987
F0.0
s(g1764
I0
tp1988
F1.852544636085057
s(g227
I1
tp1989
F0.8025599999999999
s(g1768
I0
tp1990
F1.17834862785454
s(g465
I0
tp1991
F-479.98400000000004
s(g229
I1
tp1992
F0.0
s(g1772
I0
tp1993
F0.8781312
s(g231
I1
tp1994
F0.0
s(g1776
I0
tp1995
F1.000194048
s(g1778
I0
tp1996
F0.6719999999999999
s(g241
I1
tp1997
F0.0
s(g1780
I0
tp1998
F1.0974963350023081
s(g243
I1
tp1999
F0.0
s(g213
I0
tp2000
F0.6912
s(g1782
I0
tp2001
F-490.86145536
s(g1860
I0
tp2002
F0.6912
s(g247
I1
tp2003
F-399.92
s(g249
I1
tp2004
F0.6719999999999999
s(g251
I1
tp2005
F0.0
s(g255
I1
tp2006
F-400.0
s(g257
I1
tp2007
F0.0
s(g1874
I0
tp2008
F1.0781972690085653
s(g261
I1
tp2009
F0.0
s(g269
I1
tp2010
F0.0
s(g1787
I0
tp2011
F0.0
s(g271
I1
tp2012
F0.0
s(g1372
I1
tp2013
F0.0
s(g277
I1
tp2014
F0.0
s(g1789
I0
tp2015
F0.6719999999999999
s(g1792
I0
tp2016
F1.0010071329669121
s(g1907
I0
tp2017
F0.4992
s(g1815
I1
tp2018
F0.0
s(g1795
I0
tp2019
F34.56
s(g1797
I0
tp2020
F0.915406848
s(g253
I0
tp2021
F0.915406848
s(g1774
I1
tp2022
F0.0
s(g281
I1
tp2023
F0.48
s(g1800
I0
tp2024
F1.2096339421471864
s(g1802
I0
tp2025
F0.4992
s(g1805
I0
tp2026
F0.4992
s(g283
I1
tp2027
F0.0
s(g373
I0
tp2028
F3.40774850112025
s(g1482
I1
tp2029
F0.0
s(g1808
I0
tp2030
F0.6719999999999999
s(g1811
I0
tp2031
F1.137977576081326
s(g1813
I0
tp2032
F-400.0
s(g1817
I0
tp2033
F1.1518336669524494
s(g1819
I0
tp2034
F2.0414436733626644
s(g1821
I0
tp2035
F1.0811461632000001
s(g1823
I0
tp2036
F1.1959319253546281
s(g977
I1
tp2037
F0.0
s(g1826
I0
tp2038
F1.2471339722122172
s((I360
I-90
I6
tp2039
I0
tp2040
F0.730368
s(g297
I1
tp2041
F0.0
s(g2039
I1
tp2042
F0.0
s(g1831
I0
tp2043
F1.0439885488128
s(g303
I1
tp2044
F0.0
s(g307
I1
tp2045
F1.2323380291403525
s(g309
I1
tp2046
F0.0
s(g289
I0
tp2047
F13.2244992
s(g1834
I0
tp2048
F1.1811442950720132
s(g315
I1
tp2049
F0.0
s(g1618
I1
tp2050
F0.0
s(g1836
I0
tp2051
F0.8931610840095995
s(g321
I1
tp2052
F0.0
s(g323
I1
tp2053
F0.0
s(g817
I0
tp2054
F6.915679271030445
s(g1843
I0
tp2055
F1.635184388638809
s(g329
I1
tp2056
F0.0
s(g333
I1
tp2057
F4.544070538019602
s(g1845
I0
tp2058
F-400.0
s(g1848
I0
tp2059
F-191.41632
s(g1974
I0
tp2060
F1.0018282831871999
s(g341
I1
tp2061
F0.0
s(g343
I1
tp2062
F0.0
s(g1850
I0
tp2063
F0.9639628800000001
s(g345
I1
tp2064
F0.0
s(g351
I1
tp2065
F1.0584009750704195
s(g325
I0
tp2066
F-479.95698220555306
s(g353
I1
tp2067
F0.0
s(g355
I1
tp2068
F0.48
s(g357
I1
tp2069
F0.0
s(g359
I1
tp2070
F-37.89312000000001
s(g1862
I0
tp2071
F-479.95702818406403
s(g365
I1
tp2072
F0.0
s(g1742
I0
tp2073
F0.6912
s(g367
I1
tp2074
F0.0
s.