ccollections
defaultdict
p0
(c__builtin__
float
p1
tp2
Rp3
((I160
I-180
I-4
tp4
I0
tp5
F0.7541623466666666
s((I200
I0
I10
tp6
I0
tp7
F11.988736
s((I0
I-30
I-2
tp8
I0
tp9
F11.366074604742245
s((I200
I180
I-6
tp10
I1
tp11
F0.0
s((I160
I-120
I-8
tp12
I1
tp13
F0.0
s((I280
I90
I2
tp14
I1
tp15
F0.0
s((I240
I0
I8
tp16
I0
tp17
F16.253866666666667
s((I400
I-60
I-6
tp18
I0
tp19
F8.330666666666668
s((I200
I-60
I10
tp20
I1
tp21
F0.0
s((I240
I60
I6
tp22
I0
tp23
F-329.16582400000004
s((I280
I180
I-6
tp24
I0
tp25
F-823.6148123846574
s((I360
I90
I-8
tp26
I1
tp27
F-791.7536109366819
s((I320
I150
I2
tp28
I0
tp29
F0.0
s((I240
I150
I-2
tp30
I0
tp31
F-333.978624
s((I360
I30
I0
tp32
I1
tp33
F-672.7127269801985
s((I240
I240
I-10
tp34
I1
tp35
F-537.0752000000001
s((I320
I120
I-10
tp36
I1
tp37
F-1079.3085478245905
s((I320
I30
I-8
tp38
I0
tp39
F7.405026002495077
s((I360
I-30
I-4
tp40
I1
tp41
F34.06830748483786
s((I400
I-90
I-2
tp42
I0
tp43
F0.6788266666666667
s((I0
I-60
I-8
tp44
I0
tp45
F17.292230498713604
s((I280
I60
I-2
tp46
I1
tp47
F0.0
s((I360
I30
I-10
tp48
I0
tp49
F-1202.9551424721717
s((I360
I30
I4
tp50
I0
tp51
F0.0
s((I280
I210
I-2
tp52
I0
tp53
F-333.978624
s((I320
I90
I-4
tp54
I1
tp55
F-331.328
s((I280
I210
I0
tp56
I0
tp57
F-504.986624
s((I-40
I-30
I-10
tp58
I1
tp59
F0.0
s((I80
I-90
I-8
tp60
I0
tp61
F3.279830650901409
s((I400
I-30
I-6
tp62
I1
tp63
F0.0
s((I280
I120
I-10
tp64
I0
tp65
F-1171.002232365592
s((I240
I240
I-8
tp66
I1
tp67
F-267.84000000000003
s((I120
I-180
I-2
tp68
I1
tp69
F0.0
s((I120
I-180
I0
tp70
I1
tp71
F0.6788266666666667
s((I280
I-150
I10
tp72
I1
tp73
F0.0
s((I240
I210
I-8
tp74
I1
tp75
F-570.7392
s((I320
I120
I-4
tp76
I0
tp77
F-825.0411207804165
s((I-40
I-30
I0
tp78
I1
tp79
F0.0
s((I400
I30
I-8
tp80
I1
tp81
F-9.07452593133299
s((I320
I150
I-4
tp82
I0
tp83
F-333.978624
s((I240
I150
I4
tp84
I1
tp85
F0.0
s((I0
I-30
I4
tp86
I1
tp87
F0.0
s((I80
I-120
I-8
tp88
I0
tp89
F0.0
s((I400
I-120
I-10
tp90
I1
tp91
F3.097677494075742
s((I280
I-120
I10
tp92
I0
tp93
F0.7335259889117867
s((I280
I150
I-8
tp94
I1
tp95
F-1092.3547469977266
s((I160
I-120
I10
tp96
I1
tp97
F0.0
s((I120
I0
I-6
tp98
I1
tp99
F0.0
s((I280
I60
I0
tp100
I1
tp101
F0.0
s((I240
I210
I-10
tp102
I0
tp103
F-320.64
s((I360
I-30
I2
tp104
I1
tp105
F0.0
s((I240
I-120
I-8
tp106
I0
tp107
F0.7074986666666667
s((I240
I60
I8
tp108
I0
tp109
F10.1824
s((I40
I-60
I2
tp110
I1
tp111
F0.0
s((I360
I-60
I-10
tp112
I0
tp113
F13.902919680000002
s((I-80
I0
I-2
tp114
I1
tp115
F0.0
s((I120
I-120
I-6
tp116
I0
tp117
F0.6788266666666667
s((I360
I-60
I6
tp118
I0
tp119
F13.255257282969604
s((I360
I0
I-6
tp120
I1
tp121
F6.215319228940324
s((I280
I90
I0
tp122
I0
tp123
F-333.978624
s((I320
I210
I-10
tp124
I0
tp125
F-573.389824
s((I320
I180
I-8
tp126
I1
tp127
F-577.57952
s((I280
I90
I-4
tp128
I1
tp129
F0.0
s((I240
I120
I-8
tp130
I1
tp131
F-320.64
s((I240
I210
I-6
tp132
I0
tp133
F0.0
s((I120
I-120
I6
tp134
I1
tp135
F0.0
s((I40
I-60
I4
tp136
I0
tp137
F0.0
s((I80
I-90
I-10
tp138
I0
tp139
F0.8752598974900907
s((I40
I-60
I-2
tp140
I0
tp141
F1.1569819212491435
s((I320
I0
I8
tp142
I0
tp143
F10.1824
s((I80
I0
I6
tp144
I1
tp145
F0.0
s((I120
I-90
I0
tp146
I1
tp147
F0.0
s((I160
I-180
I10
tp148
I0
tp149
F0.6788266666666667
s((I240
I0
I10
tp150
I1
tp151
F0.0
s((I200
I-90
I10
tp152
I1
tp153
F0.0
s((I320
I120
I-6
tp154
I0
tp155
F-971.9619741357893
s((I120
I-90
I-2
tp156
I0
tp157
F0.7541623466666666
s((I360
I0
I-4
tp158
I0
tp159
F27.278281742745605
s((I240
I120
I-4
tp160
I1
tp161
F0.0
s((I320
I150
I-6
tp162
I0
tp163
F-570.7392
s(g156
I1
tp164
F0.0
s((I120
I-90
I2
tp165
I1
tp166
F0.0
s((I160
I-210
I-8
tp167
I0
tp168
F0.6788266666666667
s((I320
I150
I0
tp169
I1
tp170
F0.0
s((I400
I-30
I-8
tp171
I0
tp172
F0.0
s((I360
I90
I-10
tp173
I1
tp174
F-1069.5327586727778
s((I40
I-60
I0
tp175
I0
tp176
F0.9018910333748292
s((I-40
I0
I-6
tp177
I0
tp178
F18.85405866666667
s((I280
I30
I8
tp179
I1
tp180
F0.0
s((I-80
I0
I-4
tp181
I0
tp182
F18.137258666666668
s((I280
I240
I-10
tp183
I1
tp184
F-267.84000000000003
s((I400
I-60
I-10
tp185
I0
tp186
F23.062746584828062
s(g177
I1
tp187
F0.0
s((I360
I0
I-2
tp188
I1
tp189
F0.0
s((I320
I120
I0
tp190
I1
tp191
F0.0
s((I80
I-120
I6
tp192
I0
tp193
F0.8567770043733334
s((I240
I-150
I10
tp194
I0
tp195
F0.7254903466666667
s((I360
I-60
I-8
tp196
I0
tp197
F21.806337425266847
s((I320
I60
I-2
tp198
I0
tp199
F-331.328
s((I400
I0
I-8
tp200
I0
tp201
F35.02281575116564
s((I280
I210
I-4
tp202
I1
tp203
F-708.913664
s((I120
I-120
I4
tp204
I0
tp205
F0.7254903466666667
s((I360
I30
I-2
tp206
I0
tp207
F13.255743335334884
s((I320
I90
I-10
tp208
I0
tp209
F-1078.063295628118
s((I320
I0
I0
tp210
I1
tp211
F0.0
s((I320
I30
I4
tp212
I1
tp213
F0.0
s((I80
I0
I4
tp214
I0
tp215
F14.710272
s((I80
I-60
I-2
tp216
I0
tp217
F0.6788266666666667
s((I280
I60
I2
tp218
I0
tp219
F-46.25382400000001
s((I200
I-120
I-4
tp220
I0
tp221
F0.0
s((I0
I-60
I4
tp222
I0
tp223
F-267.1466666666667
s((I320
I-30
I-8
tp224
I1
tp225
F0.0
s((I-40
I-30
I4
tp226
I0
tp227
F-267.1018666666667
s((I0
I-30
I-6
tp228
I0
tp229
F17.502703863857153
s((I240
I30
I8
tp230
I1
tp231
F0.0
s((I80
I0
I0
tp232
I1
tp233
F0.0
s((I80
I-60
I10
tp234
I0
tp235
F5.636746273751041
s((I160
I-150
I10
tp236
I1
tp237
F0.6788266666666667
s((I400
I-90
I-8
tp238
I0
tp239
F12.684088589644624
s((I320
I-30
I10
tp240
I0
tp241
F1.7390933333333338
s((I280
I-60
I10
tp242
I0
tp243
F0.8539483889117867
s((I360
I120
I-4
tp244
I1
tp245
F0.0
s((I120
I0
I0
tp246
I0
tp247
F18.85405866666667
s((I320
I180
I-6
tp248
I0
tp249
F-331.328
s((I40
I-30
I6
tp250
I1
tp251
F0.0
s((I320
I210
I-8
tp252
I1
tp253
F-331.328
s((I280
I120
I0
tp254
I1
tp255
F-893.463328066812
s(g44
I1
tp256
F0.0
s((I-40
I-30
I-8
tp257
I1
tp258
F0.0
s((I80
I-30
I8
tp259
I0
tp260
F1.7390933333333338
s((I400
I-30
I-2
tp261
I0
tp262
F10.1824
s((I320
I60
I-10
tp263
I1
tp264
F-1209.3136760852778
s((I280
I210
I-10
tp265
I1
tp266
F-418.2873220680201
s((I120
I-120
I-4
tp267
I1
tp268
F0.6788266666666667
s((I120
I-150
I-10
tp269
I0
tp270
F0.7074986666666667
s((I320
I0
I6
tp271
I1
tp272
F0.0
s((I360
I60
I-8
tp273
I1
tp274
F-1171.7644075188362
s((I40
I-30
I0
tp275
I0
tp276
F15.801713506167468
s((I280
I90
I-10
tp277
I0
tp278
F-596.9570521088
s((I360
I-30
I0
tp279
I1
tp280
F0.0
s((I320
I0
I-4
tp281
I1
tp282
F16.497454313250593
s((I360
I-60
I0
tp283
I1
tp284
F0.6788266666666667
s((I320
I-30
I-6
tp285
I0
tp286
F0.0
s((I0
I-30
I-4
tp287
I1
tp288
F0.0
s((I120
I-90
I-4
tp289
I0
tp290
F0.7074986666666667
s((I240
I90
I-8
tp291
I1
tp292
F-331.328
s((I240
I150
I0
tp293
I0
tp294
F-333.978624
s((I40
I-60
I-8
tp295
I1
tp296
F0.0
s((I200
I-90
I-6
tp297
I1
tp298
F0.0
s((I240
I-180
I-10
tp299
I1
tp300
F0.7992490666666667
s((I320
I30
I-4
tp301
I0
tp302
F10.1824
s((I360
I-30
I-8
tp303
I1
tp304
F18.945701941335415
s((I280
I60
I-6
tp305
I1
tp306
F-331.328
s(g76
I1
tp307
F-1014.3200466840534
s((I360
I30
I-6
tp308
I0
tp309
F-897.4968287232
s((I320
I30
I2
tp310
I1
tp311
F0.0
s((I40
I-30
I-4
tp312
I0
tp313
F11.3124352
s((I360
I30
I2
tp314
I1
tp315
F0.0
s((I320
I210
I-6
tp316
I0
tp317
F-579.2759193600001
s((I40
I-90
I-6
tp318
I0
tp319
F1.5208932256426668
s((I320
I150
I-8
tp320
I1
tp321
F-1062.2418193140827
s(g244
I0
tp322
F-331.328
s((I320
I90
I-8
tp323
I1
tp324
F-1205.0794975627296
s((I320
I120
I-8
tp325
I1
tp326
F-929.199536676311
s((I160
I0
I-8
tp327
I0
tp328
F17.68746666666667
s((I-40
I-60
I6
tp329
I0
tp330
F-320.75733333333335
s((I40
I0
I4
tp331
I0
tp332
F11.950421333333333
s((I360
I0
I-10
tp333
I0
tp334
F-549.1359551981332
s((I400
I-90
I-10
tp335
I0
tp336
F10.547749802678561
s((I360
I-30
I-2
tp337
I0
tp338
F10.61248
s((I320
I0
I4
tp339
I0
tp340
F17.68746666666667
s((I160
I-120
I-6
tp341
I0
tp342
F0.7254903466666667
s((I200
I-90
I-10
tp343
I1
tp344
F0.0
s(g257
I0
tp345
F16.97066666666667
s((I0
I-30
I2
tp346
I1
tp347
F0.0
s(g78
I0
tp348
F11.3124352
s((I320
I0
I-8
tp349
I0
tp350
F14.7585531936768
s((I360
I120
I-8
tp351
I1
tp352
F-899.6434660303569
s((I0
I-60
I10
tp353
I1
tp354
F0.0
s((I400
I30
I-4
tp355
I1
tp356
F0.0
s((I320
I60
I-8
tp357
I1
tp358
F-1062.0917604460637
s((I400
I0
I-6
tp359
I1
tp360
F0.0
s((I200
I-60
I-4
tp361
I1
tp362
F0.0
s((I240
I-150
I-10
tp363
I0
tp364
F0.6788266666666667
s((I280
I150
I-4
tp365
I1
tp366
F0.0
s((I160
I-60
I-10
tp367
I1
tp368
F0.0
s((I320
I-30
I8
tp369
I1
tp370
F0.0
s((I360
I90
I-6
tp371
I1
tp372
F-733.3366720891455
s(g325
I0
tp373
F-1042.5704950339477
s((I360
I-30
I-6
tp374
I0
tp375
F31.983696610824893
s((I0
I-60
I6
tp376
I1
tp377
F0.0
s((I160
I-90
I-4
tp378
I0
tp379
F0.6788266666666667
s((I280
I60
I-8
tp380
I0
tp381
F-333.978624
s((I-40
I-30
I2
tp382
I1
tp383
F0.0
s((I200
I150
I-10
tp384
I0
tp385
F-331.328
s((I80
I0
I-2
tp386
I0
tp387
F17.68746666666667
s((I160
I-120
I-10
tp388
I0
tp389
F0.7074986666666667
s((I200
I-30
I10
tp390
I1
tp391
F0.0
s((I240
I150
I-8
tp392
I0
tp393
F-331.456
s((I280
I30
I4
tp394
I0
tp395
F11.3124352
s((I-40
I0
I-8
tp396
I0
tp397
F17.68746666666667
s((I320
I90
I-6
tp398
I0
tp399
F-1070.3320679935653
s((I360
I120
I-10
tp400
I0
tp401
F-868.3484460742234
s((I320
I30
I-6
tp402
I0
tp403
F-277.4793148229222
s((I360
I60
I-6
tp404
I0
tp405
F-860.8139996450885
s((I120
I-150
I-8
tp406
I1
tp407
F0.0
s((I120
I0
I2
tp408
I1
tp409
F0.0
s((I160
I-60
I-8
tp410
I0
tp411
F10.1824
s((I280
I90
I-8
tp412
I1
tp413
F-580.230144
s((I280
I150
I0
tp414
I1
tp415
F0.0
s((I320
I0
I-2
tp416
I0
tp417
F27.35401599085227
s((I160
I-180
I-6
tp418
I1
tp419
F0.0
s((I320
I150
I-10
tp420
I1
tp421
F-968.1763597383759
s((I320
I60
I-4
tp422
I0
tp423
F-333.978624
s(g194
I1
tp424
F0.0
s((I80
I-90
I-6
tp425
I0
tp426
F0.6788266666666667
s((I400
I-30
I-4
tp427
I1
tp428
F0.0
s((I40
I-60
I-6
tp429
I0
tp430
F1.0386387544746667
s((I400
I30
I-2
tp431
I0
tp432
F15.616064003902565
s((I200
I180
I-4
tp433
I0
tp434
F-267.84000000000003
s((I0
I-60
I-10
tp435
I1
tp436
F0.0
s((I400
I0
I-10
tp437
I0
tp438
F31.03377696875003
s((I400
I-120
I-8
tp439
I0
tp440
F5.537197992956469
s((I200
I-150
I10
tp441
I1
tp442
F0.0
s((I280
I150
I-2
tp443
I0
tp444
F-333.978624
s((I320
I180
I-10
tp445
I0
tp446
F-782.29035122688
s((I320
I120
I-2
tp447
I0
tp448
F-385.1408670908744
s((I320
I30
I-10
tp449
I0
tp450
F-795.0972193821431
s((I360
I30
I-8
tp451
I1
tp452
F-209.83567135263252
s((I400
I30
I-6
tp453
I1
tp454
F0.0
s((I80
I-120
I-10
tp455
I0
tp456
F1.167622665813605
s((I280
I120
I-8
tp457
I0
tp458
F-385.1408670908744
s((I80
I-120
I8
tp459
I0
tp460
F1.0236054459733335
s((I280
I150
I-6
tp461
I1
tp462
F0.0
s((I40
I-60
I-10
tp463
I0
tp464
F3.205006242436438
s((I0
I-90
I10
tp465
I1
tp466
F0.0
s((I200
I180
I-8
tp467
I0
tp468
F-331.328
s((I120
I-150
I-6
tp469
I0
tp470
F0.6788266666666667
s(g384
I1
tp471
F0.0
s((I360
I-30
I4
tp472
I1
tp473
F0.0
s((I240
I-180
I10
tp474
I1
tp475
F0.6788266666666667
s((I40
I-30
I-6
tp476
I1
tp477
F0.0
s((I160
I-210
I10
tp478
I1
tp479
F0.6788266666666667
s((I320
I0
I-10
tp480
I1
tp481
F0.0
s((I240
I120
I-6
tp482
I0
tp483
F-333.978624
s((I160
I-60
I-2
tp484
I1
tp485
F0.0
s((I320
I60
I-6
tp486
I0
tp487
F-556.2747961344
s((I280
I30
I6
tp488
I1
tp489
F0.0
s((I160
I-180
I-8
tp490
I0
tp491
F0.7074986666666667
s((I280
I210
I-8
tp492
I1
tp493
F-725.6787356614656
s((I160
I-30
I-10
tp494
I0
tp495
F14.472539127808002
s((I400
I30
I-10
tp496
I1
tp497
F-333.26139906636166
s((I360
I60
I-4
tp498
I0
tp499
F-633.9378051743745
s((I240
I120
I6
tp500
I0
tp501
F-680.1843200000001
s((I360
I0
I-8
tp502
I1
tp503
F-335.96029751879786
s((I160
I-30
I-8
tp504
I1
tp505
F0.0
s((I280
I60
I-10
tp506
I1
tp507
F-750.57466032128
s(g26
I0
tp508
F-982.3918467996295
s((I280
I150
I-10
tp509
I1
tp510
F-947.9821226423092
s((I160
I-60
I0
tp511
I1
tp512
F8.330666666666668
s((I240
I120
I-10
tp513
I1
tp514
F-591.2929280000001
s((I320
I0
I-6
tp515
I1
tp516
F13.325175209984
s((I80
I-60
I-6
tp517
I0
tp518
F0.7074986666666667
s(g4
I1
tp519
F0.0
s((I400
I60
I-10
tp520
I0
tp521
F-1020.9475937220301
s((I40
I-60
I10
tp522
I0
tp523
F0.7254903466666667
s(g8
I1
tp524
F0.0
s((I0
I-30
I0
tp525
I1
tp526
F0.0
s((I40
I-60
I-4
tp527
I0
tp528
F1.1542202945809068
s((I280
I180
I-10
tp529
I0
tp530
F-972.3261704078304
s(g16
I1
tp531
F0.0
s(g18
I1
tp532
F14.375384102222844
s((I320
I120
I2
tp533
I0
tp534
F-570.7392
s(g22
I1
tp535
F0.0
s(g24
I1
tp536
F-914.2182001786103
s((I280
I-90
I10
tp537
I0
tp538
F0.8539483889117867
s(g28
I1
tp539
F-785.1147850219521
s(g30
I1
tp540
F0.0
s((I80
I-90
I10
tp541
I0
tp542
F0.0
s(g346
I0
tp543
F6.474841986765073
s(g318
I1
tp544
F0.0
s(g38
I1
tp545
F-240.36527159246845
s((I320
I0
I2
tp546
I0
tp547
F0.0
s(g42
I1
tp548
F0.0
s((I40
I-30
I8
tp549
I0
tp550
F1.6473429333333334
s((I200
I-120
I10
tp551
I0
tp552
F0.8539483889117867
s(g48
I1
tp553
F-487.97595423116616
s((I360
I-60
I-2
tp554
I0
tp555
F0.6788266666666667
s((I400
I-30
I-10
tp556
I0
tp557
F30.282915427678756
s(g52
I1
tp558
F-980.4588473792276
s(g56
I1
tp559
F0.0
s(g60
I1
tp560
F0.0
s((I240
I-150
I-8
tp561
I0
tp562
F0.6788266666666667
s((I360
I60
I-10
tp563
I0
tp564
F-1076.1263490608399
s(g396
I1
tp565
F0.0
s((I160
I-210
I-10
tp566
I0
tp567
F0.6788266666666667
s(g64
I1
tp568
F-711.9896159872615
s((I240
I-60
I10
tp569
I0
tp570
F0.7335259889117867
s((I200
I-120
I-6
tp571
I0
tp572
F0.7254903466666667
s((I400
I-60
I-8
tp573
I0
tp574
F28.148445329247604
s((I80
I-60
I-4
tp575
I0
tp576
F0.7254903466666667
s((I400
I60
I-8
tp577
I0
tp578
F-792.17061888
s(g82
I1
tp579
F-1001.4878403485498
s(g88
I1
tp580
F1.1196729969042718
s((I280
I180
I-8
tp581
I0
tp582
F-939.9570784171995
s((I80
I-150
I8
tp583
I1
tp584
F1.1171723466069334
s(g92
I1
tp585
F0.0
s((I400
I-90
I-6
tp586
I0
tp587
F5.913810816186919
s(g181
I1
tp588
F0.0
s((I200
I150
I-8
tp589
I0
tp590
F-331.328
s(g549
I1
tp591
F0.0
s(g102
I1
tp592
F-577.57952
s(g106
I1
tp593
F0.0
s(g108
I1
tp594
F0.0
s(g392
I1
tp595
F0.0
s(g112
I1
tp596
F0.0
s(g116
I1
tp597
F0.0
s((I280
I210
I2
tp598
I0
tp599
F-570.7392
s((I240
I-90
I10
tp600
I0
tp601
F0.7074986666666667
s(g118
I1
tp602
F11.00830564352
s(g122
I1
tp603
F0.0
s((I200
I-90
I-8
tp604
I0
tp605
F0.7541623466666666
s((I200
I-180
I10
tp606
I0
tp607
F0.7254903466666667
s(g124
I1
tp608
F0.0
s(g202
I0
tp609
F-634.7965681033544
s(g158
I1
tp610
F0.0
s(g6
I1
tp611
F0.0
s((I360
I-30
I-10
tp612
I0
tp613
F36.570258178429654
s((I80
I-30
I6
tp614
I0
tp615
F8.60544
s(g96
I0
tp616
F0.7335259889117867
s(g132
I1
tp617
F-331.328
s(g136
I1
tp618
F0.6788266666666667
s((I280
I30
I-10
tp619
I0
tp620
F-331.328
s(g138
I1
tp621
F0.0
s((I240
I150
I2
tp622
I0
tp623
F-383.55726336
s(g140
I1
tp624
F0.0
s((I240
I150
I-4
tp625
I0
tp626
F-331.328
s(g142
I1
tp627
F0.0
s((I320
I150
I-2
tp628
I0
tp629
F-333.978624
s((I400
I-90
I-4
tp630
I0
tp631
F0.7254903466666667
s(g154
I1
tp632
F-953.159070539155
s((I280
I90
I-2
tp633
I1
tp634
F0.0
s((I40
I-30
I-2
tp635
I0
tp636
F15.966105431354027
s((I240
I30
I10
tp637
I0
tp638
F20.86404280636758
s((I160
I-30
I-6
tp639
I0
tp640
F0.0
s(g162
I1
tp641
F-331.328
s(g167
I1
tp642
F0.0
s(g171
I1
tp643
F32.62993495095456
s(g175
I1
tp644
F0.0
s(g206
I1
tp645
F-342.31416353240786
s(g50
I1
tp646
F-98.7800656576221
s(g185
I1
tp647
F0.0
s(g12
I0
tp648
F0.7541623466666666
s(g14
I0
tp649
F-333.978624
s(g146
I0
tp650
F0.7541623466666666
s(g20
I0
tp651
F1.2640642994103037
s(g196
I1
tp652
F11.54079744
s(g198
I1
tp653
F-1149.5535005563743
s(g200
I1
tp654
F-158.88704220085333
s((I360
I30
I-4
tp655
I0
tp656
F17.50602279383204
s(g204
I1
tp657
F0.0
s(g208
I1
tp658
F-1109.410234286433
s(g214
I1
tp659
F0.0
s(g250
I0
tp660
F9.3053952
s(g36
I0
tp661
F-791.1417621138058
s((I240
I-30
I10
tp662
I1
tp663
F0.0
s(g218
I1
tp664
F0.0
s(g40
I0
tp665
F21.624576320034134
s(g220
I1
tp666
F0.6788266666666667
s(g222
I1
tp667
F0.6788266666666667
s(g46
I0
tp668
F-331.328
s(g216
I1
tp669
F0.0
s(g54
I0
tp670
F0.0
s(g62
I0
tp671
F30.38144554701827
s(g238
I1
tp672
F0.0
s(g242
I1
tp673
F0.0
s(g66
I0
tp674
F-331.456
s(g246
I1
tp675
F0.0
s(g248
I1
tp676
F0.0
s(g68
I0
tp677
F0.7254903466666667
s(g70
I0
tp678
F0.0
s(g212
I0
tp679
F16.97066666666667
s(g74
I0
tp680
F-267.84000000000003
s(g259
I1
tp681
F0.0
s(g261
I1
tp682
F0.0
s(g80
I0
tp683
F-331.23110576128
s(g269
I1
tp684
F0.0
s(g90
I0
tp685
F6.1170907798926155
s(g58
I0
tp686
F13.664000000000003
s(g94
I0
tp687
F-1100.9608404500482
s(g277
I1
tp688
F-791.4609106170676
s(g230
I0
tp689
F16.631309910016004
s(g98
I0
tp690
F18.85405866666667
s(g100
I0
tp691
F-333.978624
s(g104
I0
tp692
F9.3053952
s(g285
I1
tp693
F23.17830867626667
s((I240
I150
I-10
tp694
I0
tp695
F-333.47072000000003
s(g148
I1
tp696
F0.0
s(g293
I1
tp697
F0.0
s(g110
I0
tp698
F0.7289303549101124
s((I120
I0
I-4
tp699
I0
tp700
F18.85405866666667
s(g114
I0
tp701
F16.97066666666667
s(g431
I1
tp702
F0.0
s(g301
I1
tp703
F-705.6303104000001
s(g120
I0
tp704
F19.00516929164158
s(g308
I1
tp705
F0.0
s(g312
I1
tp706
F0.0
s(g126
I0
tp707
F-385.1408670908744
s(g32
I0
tp708
F11.366074604742245
s(g128
I0
tp709
F-333.978624
s(g316
I1
tp710
F0.0
s(g130
I0
tp711
F-570.7392
s(g694
I1
tp712
F-331.328
s(g134
I0
tp713
F0.6788266666666667
s(g327
I1
tp714
F0.0
s(g333
I1
tp715
F0.0
s((I400
I-90
I-10
tp716
I1
tp717
F0.0
s(g144
I0
tp718
F10.1824
s(g337
I1
tp719
F26.04868818938539
s((I40
I0
I2
tp720
I0
tp721
F17.42045866666667
s(g339
I1
tp722
F0.0
s(g341
I1
tp723
F0.0
s((I120
I0
I-2
tp724
I0
tp725
F18.85405866666667
s(g150
I0
tp726
F14.77346219969741
s(g152
I0
tp727
F0.8563257287743697
s(g349
I1
tp728
F0.0
s(g160
I0
tp729
F-331.328
s(g226
I1
tp730
F11.27466666666667
s(g165
I0
tp731
F0.7541623466666666
s(g363
I1
tp732
F1.0811699473066667
s(g169
I0
tp733
F-333.978624
s(g173
I0
tp734
F-961.9523297976358
s(g314
I0
tp735
F5.7418752
s(g179
I0
tp736
F16.97066666666667
s(g183
I0
tp737
F-267.84000000000003
s(g598
I1
tp738
F-331.328
s(g374
I1
tp739
F0.0
s(g190
I0
tp740
F-504.986624
s(g378
I1
tp741
F0.0
s(g380
I1
tp742
F0.0
s((I240
I60
I4
tp743
I1
tp744
F0.0
s(g386
I1
tp745
F0.0
s(g234
I1
tp746
F0.0
s((I280
I210
I-6
tp747
I0
tp748
F-331.328
s(g637
I1
tp749
F0.0
s(g240
I1
tp750
F0.0
s(g394
I1
tp751
F0.0
s(g86
I0
tp752
F-267.05940138666665
s(g398
I1
tp753
F-947.05251863843
s(g402
I1
tp754
F0.0
s(g404
I1
tp755
F-842.2743635958966
s(g210
I0
tp756
F9.942609461510145
s(g410
I1
tp757
F0.0
s(g416
I1
tp758
F0.0
s(g224
I0
tp759
F20.116866061653337
s(g422
I1
tp760
F-1101.9358812445394
s(g425
I1
tp761
F0.0
s(g429
I1
tp762
F0.0
s(g275
I1
tp763
F0.0
s(g433
I1
tp764
F0.0
s(g437
I1
tp765
F-12.17797914951619
s(g232
I0
tp766
F18.85405866666667
s(g439
I1
tp767
F0.0
s(g236
I0
tp768
F0.0
s(g443
I1
tp769
F0.0
s(g445
I1
tp770
F-967.4116501289674
s(g655
I1
tp771
F0.0
s(g447
I1
tp772
F-1126.958033919274
s(g449
I1
tp773
F-1083.6541462999799
s(g252
I0
tp774
F0.0
s(g254
I0
tp775
F0.0
s(g455
I1
tp776
F0.0
s(g457
I1
tp777
F-1083.3002956477333
s(g263
I0
tp778
F-894.2782738912368
s(g265
I0
tp779
F-840.7733386657345
s(g463
I1
tp780
F0.0
s(g488
I0
tp781
F14.309341866666669
s(g467
I1
tp782
F0.0
s(g271
I0
tp783
F14.710272
s(g283
I0
tp784
F0.0
s(g469
I1
tp785
F0.0
s(g289
I1
tp786
F0.0
s(g34
I0
tp787
F-505.31072000000006
s(g329
I1
tp788
F0.0
s(g482
I1
tp789
F0.0
s(g331
I1
tp790
F0.0
s(g281
I0
tp791
F28.145542654634678
s(g486
I1
tp792
F-959.8282664694265
s(g490
I1
tp793
F0.0
s(g472
I0
tp794
F12.08960219654827
s(g287
I0
tp795
F13.613821089179238
s(g291
I0
tp796
F0.0
s(g498
I1
tp797
F-987.8888733542011
s(g295
I0
tp798
F13.050935749598251
s(g500
I1
tp799
F-708.9660928
s(g297
I0
tp800
F0.7541623466666666
s(g569
I1
tp801
F0.0
s(g299
I0
tp802
F0.0
s(g303
I0
tp803
F30.10536516467895
s(g305
I0
tp804
F-378.0302848
s(g662
I0
tp805
F1.8764871030101338
s(g517
I1
tp806
F0.0
s(g310
I0
tp807
F14.309341866666669
s(g520
I1
tp808
F0.0
s(g522
I1
tp809
F0.0
s(g527
I1
tp810
F0.0
s(g320
I0
tp811
F-895.9766317852263
s(g529
I1
tp812
F-896.5062579467483
s(g323
I0
tp813
F-1085.401313114272
s(g504
I0
tp814
F17.067560905386667
s(g484
I0
tp815
F0.7254903466666667
s(g267
I0
tp816
F0.6788266666666667
s(g699
I1
tp817
F0.0
s(g388
I1
tp818
F0.0
s(g533
I1
tp819
F-331.328
s(g343
I0
tp820
F0.7074986666666667
s(g625
I1
tp821
F0.0
s(g351
I0
tp822
F-333.978624
s(g353
I0
tp823
F-267.1018666666667
s(g511
I0
tp824
F0.0
s(g355
I0
tp825
F17.86353021336792
s(g541
I1
tp826
F6.874012243503788
s(g357
I0
tp827
F-628.1355969232304
s(g359
I0
tp828
F33.77047321672686
s(g747
I1
tp829
F-267.84000000000003
s(g361
I0
tp830
F0.7541623466666666
s(g546
I1
tp831
F-335.71318369766266
s(g365
I0
tp832
F-333.978624
s(g492
I0
tp833
F-620.4676736667564
s(g367
I0
tp834
F10.033066666666667
s(g724
I1
tp835
F0.0
s(g551
I1
tp836
F0.0
s(g369
I0
tp837
F8.60544
s(g371
I0
tp838
F-333.978624
s(g720
I1
tp839
F0.0
s(g639
I1
tp840
F13.472726071159467
s(g376
I0
tp841
F-267.84000000000003
s(g84
I0
tp842
F-504.986624
s(g554
I1
tp843
F0.0
s(g273
I0
tp844
F-1032.3110680805523
s(g556
I1
tp845
F20.281558006218756
s(g382
I0
tp846
F10.8823552
s(g390
I0
tp847
F1.8764871030101338
s(g561
I1
tp848
F0.0
s(g563
I1
tp849
F-1096.1805312648255
s(g566
I1
tp850
F0.0
s(g10
I0
tp851
F-333.89312
s(g571
I1
tp852
F0.0
s(g406
I0
tp853
F0.7254903466666667
s(g573
I1
tp854
F11.241866897429247
s(g575
I1
tp855
F0.0
s(g408
I0
tp856
F18.85405866666667
s(g577
I1
tp857
F0.0
s(g412
I0
tp858
F-331.328
s(g459
I1
tp859
F0.0
s(g414
I0
tp860
F-684.2030080000001
s(g418
I0
tp861
F0.7541623466666666
s(g420
I0
tp862
F-1049.1440207427956
s(g279
I0
tp863
F11.3124352
s(g581
I1
tp864
F-1108.4929446481797
s(g427
I0
tp865
F10.8823552
s(g586
I1
tp866
F6.926062571178693
s(g435
I0
tp867
F12.488577652053333
s(g589
I1
tp868
F0.0
s(g743
I0
tp869
F-333.978624
s(g494
I1
tp870
F0.0
s(g453
I0
tp871
F10.748738368207585
s(g228
I1
tp872
F0.0
s(g600
I1
tp873
F0.0
s(g461
I0
tp874
F-333.978624
s(g604
I1
tp875
F0.0
s(g635
I1
tp876
F0.0
s(g606
I1
tp877
F0.0
s(g465
I0
tp878
F-320.75733333333335
s(g72
I0
tp879
F0.7074986666666667
s(g612
I1
tp880
F0.0
s(g583
I0
tp881
F0.0
s(g614
I1
tp882
F0.0
s(g441
I0
tp883
F0.7621979889117867
s(g192
I1
tp884
F0.0
s(g451
I0
tp885
F-1158.234470361866
s(g474
I0
tp886
F0.6788266666666667
s(g476
I0
tp887
F10.693939199999999
s(g619
I1
tp888
F-577.4497796063232
s(g478
I0
tp889
F0.6788266666666667
s(g480
I0
tp890
F20.070502072320004
s(g622
I1
tp891
F-536.9472000000001
s(g400
I1
tp892
F-728.8478613504
s(g628
I1
tp893
F0.0
s(g525
I0
tp894
F14.61917126994603
s(g188
I0
tp895
F27.630644598101338
s(g496
I0
tp896
F-59.86256037214068
s(g630
I1
tp897
F0.0
s(g502
I0
tp898
F25.348144674626347
s(g506
I0
tp899
F-331.328
s(g537
I1
tp900
F0.0
s(g509
I0
tp901
F-1089.52910555627
s(g633
I0
tp902
F-333.978624
s(g513
I0
tp903
F-502.336
s(g515
I0
tp904
F0.0
s.